
SparrowRV_APP.elf:     file format elf32-littleriscv
SparrowRV_APP.elf
architecture: riscv:rv32, flags 0x00000112:
EXEC_P, HAS_SYMS, D_PAGED
start address 0x00000000

Program Header:
0x70000003 off    0x0003b8a3 vaddr 0x00000000 paddr 0x00000000 align 2**0
         filesz 0x00000034 memsz 0x00000000 flags r--
    LOAD off    0x00001000 vaddr 0x00000000 paddr 0x00000000 align 2**12
         filesz 0x00003d4e memsz 0x00003d50 flags rwx
    LOAD off    0x00005000 vaddr 0x20000000 paddr 0x00003d50 align 2**12
         filesz 0x00021a88 memsz 0x00021a88 flags rw-
    LOAD off    0x00000a88 vaddr 0x20021a88 paddr 0x20021a88 align 2**12
         filesz 0x00000000 memsz 0x00000014 flags rw-
    LOAD off    0x00000000 vaddr 0x2003c000 paddr 0x20021a9c align 2**12
         filesz 0x00000000 memsz 0x00004000 flags rw-

Sections:
Idx Name              Size      VMA       LMA       File off  Algn  Flags
  0 .init             000000a8  00000000  00000000  00001000  2**0  CONTENTS, ALLOC, LOAD, READONLY, CODE
  1 .text             00003ca6  000000a8  000000a8  000010a8  2**2  CONTENTS, ALLOC, LOAD, READONLY, CODE
  2 .lalign           00000002  00003d4e  00003d4e  00004d4e  2**0  ALLOC
  3 .dalign           00000000  20000000  20000000  00026a88  2**0  CONTENTS
  4 .data             00021a88  20000000  00003d50  00005000  2**2  CONTENTS, ALLOC, LOAD, DATA
  5 .bss              00000014  20021a88  20021a88  00026a88  2**2  ALLOC
  6 .stack            00004000  2003c000  20021a9c  00027000  2**0  ALLOC
  7 .debug_info       0000481c  00000000  00000000  00026a88  2**0  CONTENTS, READONLY, DEBUGGING, OCTETS
  8 .debug_abbrev     00000df1  00000000  00000000  0002b2a4  2**0  CONTENTS, READONLY, DEBUGGING, OCTETS
  9 .debug_loclists   000058fd  00000000  00000000  0002c095  2**0  CONTENTS, READONLY, DEBUGGING, OCTETS
 10 .debug_aranges    000002f0  00000000  00000000  00031998  2**3  CONTENTS, READONLY, DEBUGGING, OCTETS
 11 .debug_rnglists   000016b5  00000000  00000000  00031c88  2**0  CONTENTS, READONLY, DEBUGGING, OCTETS
 12 .debug_line       00007114  00000000  00000000  0003333d  2**0  CONTENTS, READONLY, DEBUGGING, OCTETS
 13 .debug_str        00001081  00000000  00000000  0003a451  2**0  CONTENTS, READONLY, DEBUGGING, OCTETS
 14 .debug_line_str   000003a0  00000000  00000000  0003b4d2  2**0  CONTENTS, READONLY, DEBUGGING, OCTETS
 15 .comment          00000031  00000000  00000000  0003b872  2**0  CONTENTS, READONLY
 16 .riscv.attributes 00000034  00000000  00000000  0003b8a3  2**0  CONTENTS, READONLY
 17 .debug_frame      00000a24  00000000  00000000  0003b8d8  2**2  CONTENTS, READONLY, DEBUGGING, OCTETS
SYMBOL TABLE:
00000000 l    d  .init	00000000 .init
000000a8 l    d  .text	00000000 .text
00003d4e l    d  .lalign	00000000 .lalign
20000000 l    d  .dalign	00000000 .dalign
20000000 l    d  .data	00000000 .data
20021a88 l    d  .bss	00000000 .bss
2003c000 l    d  .stack	00000000 .stack
00000000 l    d  .debug_info	00000000 .debug_info
00000000 l    d  .debug_abbrev	00000000 .debug_abbrev
00000000 l    d  .debug_loclists	00000000 .debug_loclists
00000000 l    d  .debug_aranges	00000000 .debug_aranges
00000000 l    d  .debug_rnglists	00000000 .debug_rnglists
00000000 l    d  .debug_line	00000000 .debug_line
00000000 l    d  .debug_str	00000000 .debug_str
00000000 l    d  .debug_line_str	00000000 .debug_line_str
00000000 l    d  .comment	00000000 .comment
00000000 l    d  .riscv.attributes	00000000 .riscv.attributes
00000000 l    d  .debug_frame	00000000 .debug_frame
00000000 l    df *ABS*	00000000 startup.o
00000064 l       .init	00000000 loop
00000000 l    df *ABS*	00000000 main.c
00000000 l    df *ABS*	00000000 init.c
00000000 l    df *ABS*	00000000 core.c
00000000 l    df *ABS*	00000000 fpioa.c
00000000 l    df *ABS*	00000000 uart.c
00000000 l    df *ABS*	00000000 printf.c
00000320 l     F .text	00000004 _out_null
00000324 l     F .text	000004d8 _ntoa_format
000007fc l     F .text	00000020 _out_char
0000081c l     F .text	00000d8c _vsnprintf
00000000 l    df *ABS*	00000000 trap_handler.c
00000000 l    df *ABS*	00000000 _udivdi3.o
00000000 l    df *ABS*	00000000 _umoddi3.o
00000000 l    df *ABS*	00000000 lib_a-strlen.o
2001aec8 g     O .data	00000800 template_data_12
2000fec8 g     O .data	00000800 template_data_36
2000bec8 g     O .data	00000800 template_data_44
2000dec8 g     O .data	00000800 template_data_40
20022278 g       .data	00000000 __global_pointer$
00040000 g       *ABS*	00000000 _app_prog_size
00002e18 g     F .text	00000004 HardFault_Handler
00002e14 g     F .text	00000004 SysTick_Handler
2001d6c8 g     O .data	00000800 template_data_7
00002e1c g     F .text	00000098 PLIC1_FPIOA_ELI0_Handler
20018ec8 g     O .data	00000800 template_data_16
2000f6c8 g     O .data	00000800 template_data_37
200036c8 g     O .data	00000800 template_data_61
20004ec8 g     O .data	00000800 template_data_58
00004000 g       *ABS*	00000000 __stack_size
00002eb4 g     F .text	00000098 PLIC2_FPIOA_ELI1_Handler
000001d8  w      .text	00000000 PLIC0_Handler
20000ec8 g     O .data	00000800 template_data_66
2001f6c8 g     O .data	00000800 template_data_3
200186c8 g     O .data	00000800 template_data_17
00000254 g     F .text	00000080 fpioa_nio_mode_write
200086c8 g     O .data	00000800 template_data_51
00000000 g       *ABS*	00000000 _app_base_addr
20021a8c g     O .bss	00000004 system_sram_size
00000248 g     F .text	0000000c fpioa_nio_dout_read
200166c8 g     O .data	00000800 template_data_22
00040000 g       *ABS*	00000000 _cpu_sram_size
2001bec8 g     O .data	00000800 template_data_10
20001ec8 g     O .data	00000800 template_data_64
2000cec8 g     O .data	00000800 template_data_42
00001634 g     F .text	000016e8 car_plate_recognize_pipeline
20006ec8 g     O .data	00000800 template_data_54
20020ec8 g     O .data	00000800 template_data_0
20010ec8 g     O .data	00000800 template_data_34
20021a78 g     O .data	00000004 current_plate_type
2001cec8 g     O .data	00000800 template_data_8
000038c4 g     F .text	00000478 .hidden __umoddi3
0000340c g     F .text	000004b8 .hidden __udivdi3
00003114 g     F .text	00000098 PLIC6_UART0_RX_Handler
00000230 g     F .text	0000000c fpioa_nio_din_read
20019ec8 g     O .data	00000800 template_data_14
000015a8 g     F .text	0000003c init_uart0_printf
00000308 g     F .text	00000018 uart_send_date
200106c8 g     O .data	00000800 template_data_35
200096c8 g     O .data	00000800 template_data_49
20005ec8 g     O .data	00000800 template_data_56
00000170 g     F .text	0000005c sparrowrv_system_init
2000d6c8 g     O .data	00000800 template_data_41
200136c8 g     O .data	00000800 template_data_29
00000000 g       *ABS*	00000000 _use_sd_iap
200196c8 g     O .data	00000800 template_data_15
20021a7c g     O .data	00000004 last_btn_state
0000021c g     F .text	00000014 fpioa_perips_out_set
200176c8 g     O .data	00000800 template_data_20
2001e6c8 g     O .data	00000800 template_data_5
20000000 g       *ABS*	00000000 _sram_base_addr
20040000 g       .stack	00000000 _sp
20021a94 g     O .bss	00000004 system_cpu_freqM
20021868 g     O .data	00000210 template_lib
20002ec8 g     O .data	00000800 template_data_62
00000000 g     F .init	00000000 _start
200146c8 g     O .data	00000800 template_data_27
200046c8 g     O .data	00000800 template_data_59
000032dc g     F .text	00000098 PLIC9_TIMER0_OF_Handler
000031ac g     F .text	00000098 PLIC7_UART1_TX_Handler
20007ec8 g     O .data	00000800 template_data_52
2000e6c8 g     O .data	00000800 template_data_39
20011ec8 g     O .data	00000800 template_data_32
200006c8 g     O .data	00000800 template_data_67
20021a88 g     O .bss	00000004 system_vendorid
000002f8 g     F .text	00000010 uart_band_ctrl
00000068 g       .init	00000000 trap_vector_tab
20003ec8 g     O .data	00000800 template_data_60
20015ec8 g     O .data	00000800 template_data_23
00040000 g       *ABS*	00000000 _cpu_iram_size
2000a6c8 g     O .data	00000800 template_data_47
2001b6c8 g     O .data	00000800 template_data_11
200116c8 g     O .data	00000800 template_data_33
20021a88 g       .bss	00000000 __bss_start
000000a8 g     F .text	000000c8 main
20021a98 g     O .bss	00000004 system_cpu_freq
00000204 g     F .text	00000018 csr_msprint_string
200066c8 g     O .data	00000800 template_data_55
2001eec8 g     O .data	00000800 template_data_4
2001a6c8 g     O .data	00000800 template_data_13
2000b6c8 g     O .data	00000800 template_data_45
20009ec8 g     O .data	00000800 template_data_48
20021768 g     O .data	00000100 .hidden __clz_tab
00003244 g     F .text	00000098 PLIC8_UART1_RX_Handler
00004000 g       *ABS*	00000000 _cpu_stack_size
000002d4 g     F .text	00000024 uart_enable_ctrl
20013ec8 g     O .data	00000800 template_data_28
200156c8 g     O .data	00000800 template_data_25
00002f4c g     F .text	00000098 PLIC3_FPIOA_ELI2_Handler
200056c8 g     O .data	00000800 template_data_57
20000000 g       .dalign	00000000 _data
2000eec8 g     O .data	00000800 template_data_38
0000307c g     F .text	00000098 PLIC5_UART0_TX_Handler
200016c8 g     O .data	00000800 template_data_65
000001d0  w      .text	00000000 SW_Handler
20008ec8 g     O .data	00000800 template_data_50
000015e4 g     F .text	00000050 printf_
20021a88 g       .bss	00000000 _edata
200206c8 g     O .data	00000800 template_data_1
20021aa0 g       .bss	00000000 _end
20016ec8 g     O .data	00000800 template_data_21
20021a80 g     O .data	00000004 num_templates
20012ec8 g     O .data	00000800 template_data_30
00003d50 g       .lalign	00000000 _data_lma
20014ec8 g     O .data	00000800 template_data_26
2001c6c8 g     O .data	00000800 template_data_9
2001fec8 g     O .data	00000800 template_data_2
00000000 g       *ABS*	00000000 _iap_prog_size
200126c8 g     O .data	00000800 template_data_31
200026c8 g     O .data	00000800 template_data_63
0000023c g     F .text	0000000c fpioa_nio_dout_write
200076c8 g     O .data	00000800 template_data_53
00003374 g     F .text	00000098 PLIC10_SPI0_END_Handler
00003d3c g     F .text	00000012 strlen
20017ec8 g     O .data	00000800 template_data_19
2000aec8 g     O .data	00000800 template_data_46
2000c6c8 g     O .data	00000800 template_data_43
20021a90 g     O .bss	00000004 system_iram_size
00002d1c g     F .text	00000028 init_fpioa_custom
2001dec8 g     O .data	00000800 template_data_6
00002d44 g     F .text	000000d0 check_button
00002fe4 g     F .text	00000098 PLIC4_FPIOA_ELI3_Handler



Disassembly of section .init:

00000000 <_start>:
_start():
d:\PDS\SparrowRV-master\bsp\bsp_app\obj/../lib/startup/startup.S:10

_start:
.option push /*保存编译设置*/
.option norelax /*禁用相对寻址*/
.option norvc
    nop /*空操作*/
   0:	00000013          	nop
d:\PDS\SparrowRV-master\bsp\bsp_app\obj/../lib/startup/startup.S:11
    la gp, __global_pointer$ /*设置gp全局指针，__global_pointer$来源于链接脚本，与data段关联，指向全局变量*/
   4:	20022197          	auipc	gp,0x20022
   8:	27418193          	addi	gp,gp,628 # 20022278 <__global_pointer$>
d:\PDS\SparrowRV-master\bsp\bsp_app\obj/../lib/startup/startup.S:13
.option pop
    la sp, _sp /*设置sp堆栈指针，_sp来源于链接脚本，指向普通的局部变量*/
   c:	20040117          	auipc	sp,0x20040
  10:	ff410113          	addi	sp,sp,-12 # 20040000 <_sp>
d:\PDS\SparrowRV-master\bsp\bsp_app\obj/../lib/startup/startup.S:16

    /*加载data段，存储需要初始化的全局变量和静态变量*/
    la a0, _data_lma /*程序存储器的data段起始地址 加载至 a0*/
  14:	00004517          	auipc	a0,0x4
  18:	d3c50513          	addi	a0,a0,-708 # 3d50 <_data_lma>
d:\PDS\SparrowRV-master\bsp\bsp_app\obj/../lib/startup/startup.S:17
    la a1, _data     /*数据存储器的data段起始地址 加载至 a1*/
  1c:	20000597          	auipc	a1,0x20000
  20:	fe458593          	addi	a1,a1,-28 # 20000000 <_data>
d:\PDS\SparrowRV-master\bsp\bsp_app\obj/../lib/startup/startup.S:18
    la a2, _edata    /*数据存储器的data段结束地址 加载至 a2*/
  24:	81018613          	addi	a2,gp,-2032 # 20021a88 <system_vendorid>
d:\PDS\SparrowRV-master\bsp\bsp_app\obj/../lib/startup/startup.S:19
    bgeu a1, a2, 2f  /*a1大于等于a2，跳转至往下第一个2标签；否则向下执行*/
  28:	00c5fc63          	bgeu	a1,a2,40 <_start+0x40>
d:\PDS\SparrowRV-master\bsp\bsp_app\obj/../lib/startup/startup.S:21
1:
    lw t0, (a0)      /*a0指向的地址 写入 t0*/
  2c:	00052283          	lw	t0,0(a0)
d:\PDS\SparrowRV-master\bsp\bsp_app\obj/../lib/startup/startup.S:22
    sw t0, (a1)      /*t0的数据 写入 a1指向的地址 */
  30:	0055a023          	sw	t0,0(a1)
d:\PDS\SparrowRV-master\bsp\bsp_app\obj/../lib/startup/startup.S:23
    addi a0, a0, 4   /*a0+4*/
  34:	00450513          	addi	a0,a0,4
d:\PDS\SparrowRV-master\bsp\bsp_app\obj/../lib/startup/startup.S:24
    addi a1, a1, 4   /*a1+4*/
  38:	00458593          	addi	a1,a1,4
d:\PDS\SparrowRV-master\bsp\bsp_app\obj/../lib/startup/startup.S:25
    bltu a1, a2, 1b  /*a1小于a2，跳转至往上第一个1标签；否则向下执行*/
  3c:	fec5e8e3          	bltu	a1,a2,2c <_start+0x2c>
d:\PDS\SparrowRV-master\bsp\bsp_app\obj/../lib/startup/startup.S:30
    /*加载data段*/
2:

    /*清空bss段，存储不用初始化的全局变量和静态变量*/
    la a0, __bss_start /*bss段起始地址 加载至 a0*/
  40:	81018513          	addi	a0,gp,-2032 # 20021a88 <system_vendorid>
d:\PDS\SparrowRV-master\bsp\bsp_app\obj/../lib/startup/startup.S:31
    la a1, _end        /*bss段结束地址 加载至 a1*/
  44:	82818593          	addi	a1,gp,-2008 # 20021aa0 <_end>
d:\PDS\SparrowRV-master\bsp\bsp_app\obj/../lib/startup/startup.S:32
    bgeu a0, a1, 2f    /*a0大于等于a1，跳转至往下第一个2标签；否则向下执行*/
  48:	00b57863          	bgeu	a0,a1,58 <_start+0x58>
d:\PDS\SparrowRV-master\bsp\bsp_app\obj/../lib/startup/startup.S:34
1:
    sw zero, (a0)      /*a0指向的地址 写入 0*/
  4c:	00052023          	sw	zero,0(a0)
d:\PDS\SparrowRV-master\bsp\bsp_app\obj/../lib/startup/startup.S:35
    addi a0, a0, 4     /*a0+4*/
  50:	00450513          	addi	a0,a0,4
d:\PDS\SparrowRV-master\bsp\bsp_app\obj/../lib/startup/startup.S:36
    bltu a0, a1, 1b    /*a0小于a1，跳转至往上第一个1标签；否则向下执行*/
  54:	feb56ce3          	bltu	a0,a1,4c <_start+0x4c>
d:\PDS\SparrowRV-master\bsp\bsp_app\obj/../lib/startup/startup.S:40
    /*清空bss段*/
2:

    call sparrowrv_system_init  /*初始化函数*/
  58:	118000ef          	jal	ra,170 <sparrowrv_system_init>
d:\PDS\SparrowRV-master\bsp\bsp_app\obj/../lib/startup/startup.S:41
    call main   /*main函数*/
  5c:	04c000ef          	jal	ra,a8 <main>
d:\PDS\SparrowRV-master\bsp\bsp_app\obj/../lib/startup/startup.S:43

    csrwi 0x347,1  /*仿真专用，写1退出仿真*/
  60:	3470d073          	csrwi	0x347,1

00000064 <loop>:
loop():
d:\PDS\SparrowRV-master\bsp\bsp_app\obj/../lib/startup/startup.S:45
loop:  /*无限循环*/
    j loop
  64:	0000006f          	j	64 <loop>

00000068 <trap_vector_tab>:
trap_vector_tab():
d:\PDS\SparrowRV-master\bsp\bsp_app\obj/../lib/startup/startup.S:54
入口基地址(trap_vector_tab)可以放在程序存储器的任何地方，但必须32bit对齐，初始化阶段需要写入CSR_mtvec。
每个异常和中断都有独立的trap编码，每个trap编码对应中断向量表的一个32bit表项，每个表项必须按照trap编码在内存上连续分布
发生中断后，跳转至中断向量表的对应表项，即PC = 入口基地址 + trap编码*4
每个表项存放了一条跳转指令，可以跳转至相应的中断服务程序。也可以放一条其他指令，但必须是RV32I指令。 */
trap_vector_tab: 
    j   _start                      /*trap编码 0，保留，软件复位*/
  68:	f99ff06f          	j	0 <_start>
d:\PDS\SparrowRV-master\bsp\bsp_app\obj/../lib/startup/startup.S:55
    j   HardFault_Handler           /*trap编码 1，硬件错误异常*/
  6c:	5ad0206f          	j	2e18 <HardFault_Handler>
d:\PDS\SparrowRV-master\bsp\bsp_app\obj/../lib/startup/startup.S:56
    j   SW_Handler                  /*trap编码 2，软件中断*/
  70:	1600006f          	j	1d0 <SW_Handler>
d:\PDS\SparrowRV-master\bsp\bsp_app\obj/../lib/startup/startup.S:57
    j   SysTick_Handler             /*trap编码 3，核内64bit定时器中断*/
  74:	5a10206f          	j	2e14 <SysTick_Handler>
d:\PDS\SparrowRV-master\bsp\bsp_app\obj/../lib/startup/startup.S:58
    j   PLIC0_Handler               /*trap编码 4，PLIC0保留*/
  78:	1600006f          	j	1d8 <PLIC0_Handler>
d:\PDS\SparrowRV-master\bsp\bsp_app\obj/../lib/startup/startup.S:59
    j   PLIC1_FPIOA_ELI0_Handler    /*trap编码 5，FPIOA_ELI0中断*/
  7c:	5a10206f          	j	2e1c <PLIC1_FPIOA_ELI0_Handler>
d:\PDS\SparrowRV-master\bsp\bsp_app\obj/../lib/startup/startup.S:60
    j   PLIC2_FPIOA_ELI1_Handler    /*trap编码 6，FPIOA_ELI1中断*/
  80:	6350206f          	j	2eb4 <PLIC2_FPIOA_ELI1_Handler>
d:\PDS\SparrowRV-master\bsp\bsp_app\obj/../lib/startup/startup.S:61
    j   PLIC3_FPIOA_ELI2_Handler    /*trap编码 7，FPIOA_ELI2中断*/
  84:	6c90206f          	j	2f4c <PLIC3_FPIOA_ELI2_Handler>
d:\PDS\SparrowRV-master\bsp\bsp_app\obj/../lib/startup/startup.S:62
    j   PLIC4_FPIOA_ELI3_Handler    /*trap编码 8，FPIOA_ELI3中断*/
  88:	75d0206f          	j	2fe4 <PLIC4_FPIOA_ELI3_Handler>
d:\PDS\SparrowRV-master\bsp\bsp_app\obj/../lib/startup/startup.S:63
    j   PLIC5_UART0_TX_Handler      /*trap编码 9，UART0发送完成中断*/
  8c:	7f10206f          	j	307c <PLIC5_UART0_TX_Handler>
d:\PDS\SparrowRV-master\bsp\bsp_app\obj/../lib/startup/startup.S:64
    j   PLIC6_UART0_RX_Handler      /*trap编码10，UART0接收数据中断*/
  90:	0840306f          	j	3114 <PLIC6_UART0_RX_Handler>
d:\PDS\SparrowRV-master\bsp\bsp_app\obj/../lib/startup/startup.S:65
    j   PLIC7_UART1_TX_Handler      /*trap编码11，UART1发送完成中断*/
  94:	1180306f          	j	31ac <PLIC7_UART1_TX_Handler>
d:\PDS\SparrowRV-master\bsp\bsp_app\obj/../lib/startup/startup.S:66
    j   PLIC8_UART1_RX_Handler      /*trap编码12，UART0接收数据中断*/
  98:	1ac0306f          	j	3244 <PLIC8_UART1_RX_Handler>
d:\PDS\SparrowRV-master\bsp\bsp_app\obj/../lib/startup/startup.S:67
    j   PLIC9_TIMER0_OF_Handler     /*trap编码13，定时器0溢出中断*/
  9c:	2400306f          	j	32dc <PLIC9_TIMER0_OF_Handler>
d:\PDS\SparrowRV-master\bsp\bsp_app\obj/../lib/startup/startup.S:68
    j   PLIC10_SPI0_END_Handler     /*trap编码14，SPI0收发结束中断*/
  a0:	2d40306f          	j	3374 <PLIC10_SPI0_END_Handler>
  a4:	00000000          	.word	0x00000000

Disassembly of section .text:

000000a8 <main>:
main():
d:\PDS\SparrowRV-master\bsp\bsp_app\obj/../app/main.c:578
        }
    }
    last_btn_state = current_btn_state;
}

int main() {
      a8:	fe010113          	addi	sp,sp,-32
d:\PDS\SparrowRV-master\bsp\bsp_app\obj/../app/main.c:580
    // 启动缓冲延时
    for(volatile int i = 0; i < 10000000; i++);
      ac:	00012423          	sw	zero,8(sp)
      b0:	00812783          	lw	a5,8(sp)
      b4:	00989737          	lui	a4,0x989
d:\PDS\SparrowRV-master\bsp\bsp_app\obj/../app/main.c:578
int main() {
      b8:	00112e23          	sw	ra,28(sp)
      bc:	00812c23          	sw	s0,24(sp)
      c0:	00912a23          	sw	s1,20(sp)
d:\PDS\SparrowRV-master\bsp\bsp_app\obj/../app/main.c:580
    for(volatile int i = 0; i < 10000000; i++);
      c4:	67f70713          	addi	a4,a4,1663 # 98967f <_app_prog_size+0x94967f>
      c8:	00f74c63          	blt	a4,a5,e0 <main+0x38>
d:\PDS\SparrowRV-master\bsp\bsp_app\obj/../app/main.c:580 (discriminator 3)
      cc:	00812783          	lw	a5,8(sp)
      d0:	00178793          	addi	a5,a5,1
      d4:	00f12423          	sw	a5,8(sp)
      d8:	00812783          	lw	a5,8(sp)
      dc:	fef758e3          	bge	a4,a5,cc <main+0x24>
d:\PDS\SparrowRV-master\bsp\bsp_app\obj/../app/main.c:581
    init_uart0_printf(115200, 0);
      e0:	0001c537          	lui	a0,0x1c
      e4:	00000593          	li	a1,0
      e8:	20050513          	addi	a0,a0,512 # 1c200 <__stack_size+0x18200>
      ec:	4bc010ef          	jal	ra,15a8 <init_uart0_printf>
d:\PDS\SparrowRV-master\bsp\bsp_app\obj/../app/main.c:582
    init_fpioa_custom();
      f0:	42d020ef          	jal	ra,2d1c <init_fpioa_custom>
d:\PDS\SparrowRV-master\bsp\bsp_app\obj/../app/main.c:584
    
    printf("\r\n===============================================\r\n");
      f4:	20000537          	lui	a0,0x20000
      f8:	52450513          	addi	a0,a0,1316 # 20000524 <_data+0x524>
      fc:	4e8010ef          	jal	ra,15e4 <printf_>
d:\PDS\SparrowRV-master\bsp\bsp_app\obj/../app/main.c:585
    printf("   FPGA RISC-V 车牌识别系统初始化完成！\r\n");
     100:	20000537          	lui	a0,0x20000
     104:	55850513          	addi	a0,a0,1368 # 20000558 <_data+0x558>
     108:	4dc010ef          	jal	ra,15e4 <printf_>
d:\PDS\SparrowRV-master\bsp\bsp_app\obj/../app/main.c:586
    printf("===============================================\r\n");
     10c:	20000537          	lui	a0,0x20000
     110:	59050513          	addi	a0,a0,1424 # 20000590 <_data+0x590>
d:\PDS\SparrowRV-master\bsp\bsp_app\obj/../app/main.c:593
    while(1) {
        check_button();
        car_plate_recognize_pipeline();
        
        // 降低循环扫描频率，防止 AXI 总线崩溃，并给你留出看串口打印的时间
        for(volatile uint32_t i = 0; i < 20000000; i++) {
     114:	01313437          	lui	s0,0x1313
d:\PDS\SparrowRV-master\bsp\bsp_app\obj/../app/main.c:594
            if ((i & 0x1FFFF) == 0) { check_button(); }
     118:	000204b7          	lui	s1,0x20
d:\PDS\SparrowRV-master\bsp\bsp_app\obj/../app/main.c:586
    printf("===============================================\r\n");
     11c:	4c8010ef          	jal	ra,15e4 <printf_>
d:\PDS\SparrowRV-master\bsp\bsp_app\obj/../app/main.c:593
        for(volatile uint32_t i = 0; i < 20000000; i++) {
     120:	cff40413          	addi	s0,s0,-769 # 1312cff <_app_prog_size+0x12d2cff>
d:\PDS\SparrowRV-master\bsp\bsp_app\obj/../app/main.c:594
            if ((i & 0x1FFFF) == 0) { check_button(); }
     124:	fff48493          	addi	s1,s1,-1 # 1ffff <__stack_size+0x1bfff>
d:\PDS\SparrowRV-master\bsp\bsp_app\obj/../app/main.c:589
        check_button();
     128:	41d020ef          	jal	ra,2d44 <check_button>
d:\PDS\SparrowRV-master\bsp\bsp_app\obj/../app/main.c:590
        car_plate_recognize_pipeline();
     12c:	508010ef          	jal	ra,1634 <car_plate_recognize_pipeline>
d:\PDS\SparrowRV-master\bsp\bsp_app\obj/../app/main.c:593
        for(volatile uint32_t i = 0; i < 20000000; i++) {
     130:	00012623          	sw	zero,12(sp)
     134:	00c12783          	lw	a5,12(sp)
     138:	fef468e3          	bltu	s0,a5,128 <main+0x80>
d:\PDS\SparrowRV-master\bsp\bsp_app\obj/../app/main.c:594
            if ((i & 0x1FFFF) == 0) { check_button(); }
     13c:	00c12783          	lw	a5,12(sp)
     140:	0097f7b3          	and	a5,a5,s1
     144:	02078263          	beqz	a5,168 <main+0xc0>
d:\PDS\SparrowRV-master\bsp\bsp_app\obj/../app/main.c:593 (discriminator 2)
        for(volatile uint32_t i = 0; i < 20000000; i++) {
     148:	00c12783          	lw	a5,12(sp)
     14c:	00178793          	addi	a5,a5,1
     150:	00f12623          	sw	a5,12(sp)
     154:	00c12783          	lw	a5,12(sp)
     158:	fcf468e3          	bltu	s0,a5,128 <main+0x80>
d:\PDS\SparrowRV-master\bsp\bsp_app\obj/../app/main.c:594
            if ((i & 0x1FFFF) == 0) { check_button(); }
     15c:	00c12783          	lw	a5,12(sp)
     160:	0097f7b3          	and	a5,a5,s1
     164:	fe0792e3          	bnez	a5,148 <main+0xa0>
d:\PDS\SparrowRV-master\bsp\bsp_app\obj/../app/main.c:594 (discriminator 1)
     168:	3dd020ef          	jal	ra,2d44 <check_button>
d:\PDS\SparrowRV-master\bsp\bsp_app\obj/../app/main.c:593 (discriminator 1)
        for(volatile uint32_t i = 0; i < 20000000; i++) {
     16c:	fddff06f          	j	148 <main+0xa0>

00000170 <sparrowrv_system_init>:
sparrowrv_system_init():
d:\PDS\SparrowRV-master\bsp\bsp_app\obj/../lib/startup/init.c:28
//系统初始化，会在main()函数之前执行
void sparrowrv_system_init()
{
    uint32_t tmp;
    //设置中断向量表基地址
    write_csr(mtvec, &trap_vector_tab);
     170:	06800793          	li	a5,104
     174:	30579073          	csrw	mtvec,a5
d:\PDS\SparrowRV-master\bsp\bsp_app\obj/../lib/startup/init.c:30
    //读取系统信息
    tmp=read_csr(mimpid);
     178:	f13027f3          	csrr	a5,mimpid
d:\PDS\SparrowRV-master\bsp\bsp_app\obj/../lib/startup/init.c:31
    system_cpu_freq = (tmp & 0x00007FFF) * 10000;//读取时钟频率Hz
     17c:	000026b7          	lui	a3,0x2
     180:	01179713          	slli	a4,a5,0x11
     184:	71068693          	addi	a3,a3,1808 # 2710 <car_plate_recognize_pipeline+0x10dc>
     188:	01175713          	srli	a4,a4,0x11
     18c:	02d70733          	mul	a4,a4,a3
d:\PDS\SparrowRV-master\bsp\bsp_app\obj/../lib/startup/init.c:32
    system_cpu_freqM = system_cpu_freq / 1000000UL;//读取时钟频率MHz
     190:	000f46b7          	lui	a3,0xf4
     194:	24068693          	addi	a3,a3,576 # f4240 <_app_prog_size+0xb4240>
d:\PDS\SparrowRV-master\bsp\bsp_app\obj/../lib/startup/init.c:33
    system_iram_size = ((tmp & 0x00FF0000) >> 16)*1024;//读取程序存储器iram的大小
     198:	0107d613          	srli	a2,a5,0x10
     19c:	0ff67613          	zext.b	a2,a2
     1a0:	00a61613          	slli	a2,a2,0xa
d:\PDS\SparrowRV-master\bsp\bsp_app\obj/../lib/startup/init.c:34
    system_sram_size = (tmp >> 24)*1024;//读取数据存储器sram的大小
     1a4:	0187d793          	srli	a5,a5,0x18
     1a8:	00a79793          	slli	a5,a5,0xa
d:\PDS\SparrowRV-master\bsp\bsp_app\obj/../lib/startup/init.c:32
    system_cpu_freqM = system_cpu_freq / 1000000UL;//读取时钟频率MHz
     1ac:	02d756b3          	divu	a3,a4,a3
d:\PDS\SparrowRV-master\bsp\bsp_app\obj/../lib/startup/init.c:31
    system_cpu_freq = (tmp & 0x00007FFF) * 10000;//读取时钟频率Hz
     1b0:	82e1a023          	sw	a4,-2016(gp) # 20021a98 <system_cpu_freq>
d:\PDS\SparrowRV-master\bsp\bsp_app\obj/../lib/startup/init.c:33
    system_iram_size = ((tmp & 0x00FF0000) >> 16)*1024;//读取程序存储器iram的大小
     1b4:	80c1ac23          	sw	a2,-2024(gp) # 20021a90 <system_iram_size>
d:\PDS\SparrowRV-master\bsp\bsp_app\obj/../lib/startup/init.c:34
    system_sram_size = (tmp >> 24)*1024;//读取数据存储器sram的大小
     1b8:	80f1aa23          	sw	a5,-2028(gp) # 20021a8c <system_sram_size>
d:\PDS\SparrowRV-master\bsp\bsp_app\obj/../lib/startup/init.c:32
    system_cpu_freqM = system_cpu_freq / 1000000UL;//读取时钟频率MHz
     1bc:	80d1ae23          	sw	a3,-2020(gp) # 20021a94 <system_cpu_freqM>
d:\PDS\SparrowRV-master\bsp\bsp_app\obj/../lib/startup/init.c:35
    system_vendorid = read_csr(mvendorid);//读取版本ID
     1c0:	f1102773          	csrr	a4,mvendorid
     1c4:	80e1a823          	sw	a4,-2032(gp) # 20021a88 <system_vendorid>
d:\PDS\SparrowRV-master\bsp\bsp_app\obj/../lib/startup/init.c:38

    //可以写点其他的初始化代码
}
     1c8:	00008067          	ret
d:\PDS\SparrowRV-master\bsp\bsp_app\obj/../lib/startup/startup.S:88
    .weak   PLIC6_UART0_RX_Handler
    .weak   PLIC7_UART1_TX_Handler
    .weak   PLIC8_UART1_RX_Handler
    .weak   PLIC9_TIMER0_OF_Handler
    .weak   PLIC10_SPI0_END_Handler
HardFault_Handler:          1: j 1b
     1cc:	0000006f          	j	1cc <sparrowrv_system_init+0x5c>

000001d0 <SW_Handler>:
SW_Handler():
d:\PDS\SparrowRV-master\bsp\bsp_app\obj/../lib/startup/startup.S:89
SW_Handler:                 1: j 1b
     1d0:	0000006f          	j	1d0 <SW_Handler>
d:\PDS\SparrowRV-master\bsp\bsp_app\obj/../lib/startup/startup.S:90
SysTick_Handler:            1: j 1b
     1d4:	0000006f          	j	1d4 <SW_Handler+0x4>

000001d8 <PLIC0_Handler>:
PLIC0_Handler():
d:\PDS\SparrowRV-master\bsp\bsp_app\obj/../lib/startup/startup.S:91
PLIC0_Handler:              1: j 1b
     1d8:	0000006f          	j	1d8 <PLIC0_Handler>
d:\PDS\SparrowRV-master\bsp\bsp_app\obj/../lib/startup/startup.S:92
PLIC1_FPIOA_ELI0_Handler:   1: j 1b
     1dc:	0000006f          	j	1dc <PLIC0_Handler+0x4>
d:\PDS\SparrowRV-master\bsp\bsp_app\obj/../lib/startup/startup.S:93
PLIC2_FPIOA_ELI1_Handler:   1: j 1b
     1e0:	0000006f          	j	1e0 <PLIC0_Handler+0x8>
d:\PDS\SparrowRV-master\bsp\bsp_app\obj/../lib/startup/startup.S:94
PLIC3_FPIOA_ELI2_Handler:   1: j 1b
     1e4:	0000006f          	j	1e4 <PLIC0_Handler+0xc>
d:\PDS\SparrowRV-master\bsp\bsp_app\obj/../lib/startup/startup.S:95
PLIC4_FPIOA_ELI3_Handler:   1: j 1b
     1e8:	0000006f          	j	1e8 <PLIC0_Handler+0x10>
d:\PDS\SparrowRV-master\bsp\bsp_app\obj/../lib/startup/startup.S:96
PLIC5_UART0_TX_Handler:     1: j 1b
     1ec:	0000006f          	j	1ec <PLIC0_Handler+0x14>
d:\PDS\SparrowRV-master\bsp\bsp_app\obj/../lib/startup/startup.S:97
PLIC6_UART0_RX_Handler:     1: j 1b
     1f0:	0000006f          	j	1f0 <PLIC0_Handler+0x18>
d:\PDS\SparrowRV-master\bsp\bsp_app\obj/../lib/startup/startup.S:98
PLIC7_UART1_TX_Handler:     1: j 1b
     1f4:	0000006f          	j	1f4 <PLIC0_Handler+0x1c>
d:\PDS\SparrowRV-master\bsp\bsp_app\obj/../lib/startup/startup.S:99
PLIC8_UART1_RX_Handler:     1: j 1b
     1f8:	0000006f          	j	1f8 <PLIC0_Handler+0x20>
d:\PDS\SparrowRV-master\bsp\bsp_app\obj/../lib/startup/startup.S:100
PLIC9_TIMER0_OF_Handler:    1: j 1b
     1fc:	0000006f          	j	1fc <PLIC0_Handler+0x24>
d:\PDS\SparrowRV-master\bsp\bsp_app\obj/../lib/startup/startup.S:101
PLIC10_SPI0_END_Handler:    1: j 1b
     200:	0000006f          	j	200 <PLIC0_Handler+0x28>

00000204 <csr_msprint_string>:
csr_msprint_string():
d:\PDS\SparrowRV-master\bsp\bsp_app\obj/../lib/perip/src/core.c:211
 *
 * @return  无
 */
void csr_msprint_string(uint8_t *str)
{
    while (*str)//检测字符串结束标志
     204:	00c0006f          	j	210 <csr_msprint_string+0xc>
d:\PDS\SparrowRV-master\bsp\bsp_app\obj/../lib/perip/src/core.c:213 (discriminator 2)
    {
        write_csr(msprint, *str++);//msprint打印当前字符
     208:	00150513          	addi	a0,a0,1
     20c:	34679073          	csrw	0x346,a5
d:\PDS\SparrowRV-master\bsp\bsp_app\obj/../lib/perip/src/core.c:211 (discriminator 2)
    while (*str)//检测字符串结束标志
     210:	00054783          	lbu	a5,0(a0)
     214:	fe079ae3          	bnez	a5,208 <csr_msprint_string+0x4>
d:\PDS\SparrowRV-master\bsp\bsp_app\obj/../lib/perip/src/core.c:215
    }
     218:	00008067          	ret

0000021c <fpioa_perips_out_set>:
fpioa_perips_out_set():
d:\PDS\SparrowRV-master\bsp\bsp_app\obj/../lib/perip/src/fpioa.c:15
 *
 * @return  无
 */
void fpioa_perips_out_set(uint8_t fpioa_perips_o, uint8_t FPIOAx)
{
    SYS_RWMEM_B(FPIOA_OT_BASE + FPIOAx) = fpioa_perips_o;
     21c:	400017b7          	lui	a5,0x40001
     220:	f0078793          	addi	a5,a5,-256 # 40000f00 <_sp+0x1ffc0f00>
     224:	00f585b3          	add	a1,a1,a5
     228:	00a58023          	sb	a0,0(a1)
d:\PDS\SparrowRV-master\bsp\bsp_app\obj/../lib/perip/src/fpioa.c:16
}
     22c:	00008067          	ret

00000230 <fpioa_nio_din_read>:
fpioa_nio_din_read():
d:\PDS\SparrowRV-master\bsp\bsp_app\obj/../lib/perip/src/fpioa.c:70
 *
 * @return  FPIOA_NIO_DIN寄存器的值
 */
uint32_t fpioa_nio_din_read()
{
    return SYS_RWMEM_W(FPIOA_NIO_DIN);
     230:	400017b7          	lui	a5,0x40001
     234:	f207a503          	lw	a0,-224(a5) # 40000f20 <_sp+0x1ffc0f20>
d:\PDS\SparrowRV-master\bsp\bsp_app\obj/../lib/perip/src/fpioa.c:71
}
     238:	00008067          	ret

0000023c <fpioa_nio_dout_write>:
fpioa_nio_dout_write():
d:\PDS\SparrowRV-master\bsp\bsp_app\obj/../lib/perip/src/fpioa.c:84
 *
 * @return  无
 */
void fpioa_nio_dout_write(uint32_t fpioa_nio_dout)
{
    SYS_RWMEM_W(FPIOA_NIO_OPT) = fpioa_nio_dout;
     23c:	400017b7          	lui	a5,0x40001
     240:	f2a7a223          	sw	a0,-220(a5) # 40000f24 <_sp+0x1ffc0f24>
d:\PDS\SparrowRV-master\bsp\bsp_app\obj/../lib/perip/src/fpioa.c:85
}
     244:	00008067          	ret

00000248 <fpioa_nio_dout_read>:
fpioa_nio_dout_read():
d:\PDS\SparrowRV-master\bsp\bsp_app\obj/../lib/perip/src/fpioa.c:96
 *
 * @return  FPIOA_NIO_OPT的值
 */
uint32_t fpioa_nio_dout_read()
{
    return SYS_RWMEM_W(FPIOA_NIO_OPT);
     248:	400017b7          	lui	a5,0x40001
     24c:	f247a503          	lw	a0,-220(a5) # 40000f24 <_sp+0x1ffc0f24>
d:\PDS\SparrowRV-master\bsp\bsp_app\obj/../lib/perip/src/fpioa.c:97
}
     250:	00008067          	ret

00000254 <fpioa_nio_mode_write>:
fpioa_nio_mode_write():
d:\PDS\SparrowRV-master\bsp\bsp_app\obj/../lib/perip/src/fpioa.c:115
 * @return  无
 */
void fpioa_nio_mode_write(uint32_t NIO_x, uint8_t nio_mode)
{
    uint32_t tmp_md0,tmp_md1;
    tmp_md0 = SYS_RWMEM_W(FPIOA_NIO_MD0);
     254:	40001737          	lui	a4,0x40001
     258:	f2872783          	lw	a5,-216(a4) # 40000f28 <_sp+0x1ffc0f28>
d:\PDS\SparrowRV-master\bsp\bsp_app\obj/../lib/perip/src/fpioa.c:116
    tmp_md1 = SYS_RWMEM_W(FPIOA_NIO_MD1);
     25c:	f2c72703          	lw	a4,-212(a4)
d:\PDS\SparrowRV-master\bsp\bsp_app\obj/../lib/perip/src/fpioa.c:117
    switch (nio_mode)
     260:	00200693          	li	a3,2
     264:	02d58063          	beq	a1,a3,284 <fpioa_nio_mode_write+0x30>
     268:	00300693          	li	a3,3
     26c:	04d58863          	beq	a1,a3,2bc <fpioa_nio_mode_write+0x68>
     270:	02058863          	beqz	a1,2a0 <fpioa_nio_mode_write+0x4c>
d:\PDS\SparrowRV-master\bsp\bsp_app\obj/../lib/perip/src/fpioa.c:133
        tmp_md0 =  NIO_x | tmp_md0;
        tmp_md1 =  NIO_x | tmp_md1;
        break;
    default: break;
    }
    SYS_RWMEM_W(FPIOA_NIO_MD0) = tmp_md0;
     274:	400016b7          	lui	a3,0x40001
     278:	f2f6a423          	sw	a5,-216(a3) # 40000f28 <_sp+0x1ffc0f28>
d:\PDS\SparrowRV-master\bsp\bsp_app\obj/../lib/perip/src/fpioa.c:134
    SYS_RWMEM_W(FPIOA_NIO_MD1) = tmp_md1;
     27c:	f2e6a623          	sw	a4,-212(a3)
d:\PDS\SparrowRV-master\bsp\bsp_app\obj/../lib/perip/src/fpioa.c:135
}
     280:	00008067          	ret
d:\PDS\SparrowRV-master\bsp\bsp_app\obj/../lib/perip/src/fpioa.c:124
        tmp_md0 = ~NIO_x & tmp_md1;
     284:	fff54793          	not	a5,a0
     288:	00e7f7b3          	and	a5,a5,a4
d:\PDS\SparrowRV-master\bsp\bsp_app\obj/../lib/perip/src/fpioa.c:133
    SYS_RWMEM_W(FPIOA_NIO_MD0) = tmp_md0;
     28c:	400016b7          	lui	a3,0x40001
d:\PDS\SparrowRV-master\bsp\bsp_app\obj/../lib/perip/src/fpioa.c:125
        tmp_md1 =  NIO_x | tmp_md0;
     290:	00a76733          	or	a4,a4,a0
d:\PDS\SparrowRV-master\bsp\bsp_app\obj/../lib/perip/src/fpioa.c:133
    SYS_RWMEM_W(FPIOA_NIO_MD0) = tmp_md0;
     294:	f2f6a423          	sw	a5,-216(a3) # 40000f28 <_sp+0x1ffc0f28>
d:\PDS\SparrowRV-master\bsp\bsp_app\obj/../lib/perip/src/fpioa.c:134
    SYS_RWMEM_W(FPIOA_NIO_MD1) = tmp_md1;
     298:	f2e6a623          	sw	a4,-212(a3)
d:\PDS\SparrowRV-master\bsp\bsp_app\obj/../lib/perip/src/fpioa.c:135
}
     29c:	00008067          	ret
d:\PDS\SparrowRV-master\bsp\bsp_app\obj/../lib/perip/src/fpioa.c:120
        tmp_md0 = ~NIO_x & tmp_md0;
     2a0:	fff54513          	not	a0,a0
     2a4:	00a7f7b3          	and	a5,a5,a0
d:\PDS\SparrowRV-master\bsp\bsp_app\obj/../lib/perip/src/fpioa.c:133
    SYS_RWMEM_W(FPIOA_NIO_MD0) = tmp_md0;
     2a8:	400016b7          	lui	a3,0x40001
d:\PDS\SparrowRV-master\bsp\bsp_app\obj/../lib/perip/src/fpioa.c:121
        tmp_md1 = ~NIO_x & tmp_md0;
     2ac:	00078713          	mv	a4,a5
d:\PDS\SparrowRV-master\bsp\bsp_app\obj/../lib/perip/src/fpioa.c:133
    SYS_RWMEM_W(FPIOA_NIO_MD0) = tmp_md0;
     2b0:	f2f6a423          	sw	a5,-216(a3) # 40000f28 <_sp+0x1ffc0f28>
d:\PDS\SparrowRV-master\bsp\bsp_app\obj/../lib/perip/src/fpioa.c:134
    SYS_RWMEM_W(FPIOA_NIO_MD1) = tmp_md1;
     2b4:	f2e6a623          	sw	a4,-212(a3)
d:\PDS\SparrowRV-master\bsp\bsp_app\obj/../lib/perip/src/fpioa.c:135
}
     2b8:	00008067          	ret
d:\PDS\SparrowRV-master\bsp\bsp_app\obj/../lib/perip/src/fpioa.c:133
    SYS_RWMEM_W(FPIOA_NIO_MD0) = tmp_md0;
     2bc:	400016b7          	lui	a3,0x40001
d:\PDS\SparrowRV-master\bsp\bsp_app\obj/../lib/perip/src/fpioa.c:128
        tmp_md0 =  NIO_x | tmp_md0;
     2c0:	00a7e7b3          	or	a5,a5,a0
d:\PDS\SparrowRV-master\bsp\bsp_app\obj/../lib/perip/src/fpioa.c:129
        tmp_md1 =  NIO_x | tmp_md1;
     2c4:	00a76733          	or	a4,a4,a0
d:\PDS\SparrowRV-master\bsp\bsp_app\obj/../lib/perip/src/fpioa.c:133
    SYS_RWMEM_W(FPIOA_NIO_MD0) = tmp_md0;
     2c8:	f2f6a423          	sw	a5,-216(a3) # 40000f28 <_sp+0x1ffc0f28>
d:\PDS\SparrowRV-master\bsp\bsp_app\obj/../lib/perip/src/fpioa.c:134
    SYS_RWMEM_W(FPIOA_NIO_MD1) = tmp_md1;
     2cc:	f2e6a623          	sw	a4,-212(a3)
d:\PDS\SparrowRV-master\bsp\bsp_app\obj/../lib/perip/src/fpioa.c:135
}
     2d0:	00008067          	ret

000002d4 <uart_enable_ctrl>:
uart_enable_ctrl():
d:\PDS\SparrowRV-master\bsp\bsp_app\obj/../lib/perip/src/uart.c:19
 * @return  无
 */
void uart_enable_ctrl(uint32_t UARTx, uint32_t uart_en)
{
    uint32_t tmp;
    tmp = SYS_RWMEM_W(UART_CTRL(UARTx));
     2d4:	00052783          	lw	a5,0(a0)
d:\PDS\SparrowRV-master\bsp\bsp_app\obj/../lib/perip/src/uart.c:20
    if(uart_en == ENABLE)
     2d8:	00100713          	li	a4,1
     2dc:	00e58863          	beq	a1,a4,2ec <uart_enable_ctrl+0x18>
d:\PDS\SparrowRV-master\bsp\bsp_app\obj/../lib/perip/src/uart.c:26
    {
        SYS_RWMEM_W(UART_CTRL(UARTx)) = tmp | 0b0011;
    }
    else
    {
        SYS_RWMEM_W(UART_CTRL(UARTx)) = tmp & 0b1100;
     2e0:	00c7f793          	andi	a5,a5,12
     2e4:	00f52023          	sw	a5,0(a0)
d:\PDS\SparrowRV-master\bsp\bsp_app\obj/../lib/perip/src/uart.c:28
    }
}
     2e8:	00008067          	ret
d:\PDS\SparrowRV-master\bsp\bsp_app\obj/../lib/perip/src/uart.c:22
        SYS_RWMEM_W(UART_CTRL(UARTx)) = tmp | 0b0011;
     2ec:	0037e793          	ori	a5,a5,3
     2f0:	00f52023          	sw	a5,0(a0)
     2f4:	00008067          	ret

000002f8 <uart_band_ctrl>:
uart_band_ctrl():
d:\PDS\SparrowRV-master\bsp\bsp_app\obj/../lib/perip/src/uart.c:43
 *
 * @return  无
 */
void uart_band_ctrl(uint32_t UARTx, uint32_t uart_band)
{
    SYS_RWMEM_W(UART_BAUD(UARTx)) = system_cpu_freq / uart_band ; //计算出分频器的值
     2f8:	8201a783          	lw	a5,-2016(gp) # 20021a98 <system_cpu_freq>
     2fc:	02b7d7b3          	divu	a5,a5,a1
     300:	00f52423          	sw	a5,8(a0)
d:\PDS\SparrowRV-master\bsp\bsp_app\obj/../lib/perip/src/uart.c:44
}
     304:	00008067          	ret

00000308 <uart_send_date>:
uart_send_date():
d:\PDS\SparrowRV-master\bsp\bsp_app\obj/../lib/perip/src/uart.c:59
 *
 * @return  无
 */
void uart_send_date(uint32_t UARTx, uint8_t uart_send)
{
    while (SYS_RWMEM_W(UART_STATUS(UARTx)) & 0x1); //等待上一个操作结束
     308:	00450713          	addi	a4,a0,4
d:\PDS\SparrowRV-master\bsp\bsp_app\obj/../lib/perip/src/uart.c:59 (discriminator 1)
     30c:	00072783          	lw	a5,0(a4)
     310:	0017f793          	andi	a5,a5,1
     314:	fe079ce3          	bnez	a5,30c <uart_send_date+0x4>
d:\PDS\SparrowRV-master\bsp\bsp_app\obj/../lib/perip/src/uart.c:60
    SYS_RWMEM_W(UART_TXDATA(UARTx)) = uart_send;
     318:	00b52623          	sw	a1,12(a0)
d:\PDS\SparrowRV-master\bsp\bsp_app\obj/../lib/perip/src/uart.c:61
}
     31c:	00008067          	ret

00000320 <_out_null>:
_out_null():
d:\PDS\SparrowRV-master\bsp\bsp_app\obj/../lib/driver/src/printf.c:169

// internal null output
static inline void _out_null(char character, void* buffer, size_t idx, size_t maxlen)
{
  (void)character; (void)buffer; (void)idx; (void)maxlen;
}
     320:	00008067          	ret

00000324 <_ntoa_format>:
_ntoa_format():
d:\PDS\SparrowRV-master\bsp\bsp_app\obj/../lib/driver/src/printf.c:252
}


// internal itoa format
static size_t _ntoa_format(out_fct_type out, char* buffer, size_t idx, size_t maxlen, char* buf, size_t len, bool negative, unsigned int base, unsigned int prec, unsigned int width, unsigned int flags)
{
     324:	fd010113          	addi	sp,sp,-48
     328:	03812303          	lw	t1,56(sp)
     32c:	02812423          	sw	s0,40(sp)
     330:	03212023          	sw	s2,32(sp)
     334:	01312e23          	sw	s3,28(sp)
     338:	01412c23          	sw	s4,24(sp)
     33c:	01512a23          	sw	s5,20(sp)
     340:	01612823          	sw	s6,16(sp)
     344:	01712623          	sw	s7,12(sp)
     348:	01812423          	sw	s8,8(sp)
     34c:	02112623          	sw	ra,44(sp)
     350:	02912223          	sw	s1,36(sp)
     354:	01912223          	sw	s9,4(sp)
d:\PDS\SparrowRV-master\bsp\bsp_app\obj/../lib/driver/src/printf.c:254
  // pad leading zeros
  if (!(flags & FLAGS_LEFT)) {
     358:	00237c13          	andi	s8,t1,2
d:\PDS\SparrowRV-master\bsp\bsp_app\obj/../lib/driver/src/printf.c:252
{
     35c:	03012e03          	lw	t3,48(sp)
     360:	03412b83          	lw	s7,52(sp)
     364:	00050993          	mv	s3,a0
     368:	00058a13          	mv	s4,a1
     36c:	00060b13          	mv	s6,a2
     370:	00068a93          	mv	s5,a3
     374:	00070913          	mv	s2,a4
     378:	00078413          	mv	s0,a5
d:\PDS\SparrowRV-master\bsp\bsp_app\obj/../lib/driver/src/printf.c:254
  if (!(flags & FLAGS_LEFT)) {
     37c:	060c1463          	bnez	s8,3e4 <_ntoa_format+0xc0>
d:\PDS\SparrowRV-master\bsp\bsp_app\obj/../lib/driver/src/printf.c:255
    if (width && (flags & FLAGS_ZEROPAD) && (negative || (flags & (FLAGS_PLUS | FLAGS_SPACE)))) {
     380:	160b9463          	bnez	s7,4e8 <_ntoa_format+0x1c4>
d:\PDS\SparrowRV-master\bsp\bsp_app\obj/../lib/driver/src/printf.c:258
      width--;
    }
    while ((len < prec) && (len < PRINTF_NTOA_BUFFER_SIZE)) {
     384:	07c7f063          	bgeu	a5,t3,3e4 <_ntoa_format+0xc0>
     388:	02000793          	li	a5,32
d:\PDS\SparrowRV-master\bsp\bsp_app\obj/../lib/driver/src/printf.c:255
    if (width && (flags & FLAGS_ZEROPAD) && (negative || (flags & (FLAGS_PLUS | FLAGS_SPACE)))) {
     38c:	00137613          	andi	a2,t1,1
d:\PDS\SparrowRV-master\bsp\bsp_app\obj/../lib/driver/src/printf.c:258
    while ((len < prec) && (len < PRINTF_NTOA_BUFFER_SIZE)) {
     390:	3cf40e63          	beq	s0,a5,76c <_ntoa_format+0x448>
d:\PDS\SparrowRV-master\bsp\bsp_app\obj/../lib/driver/src/printf.c:259
      buf[len++] = '0';
     394:	03000713          	li	a4,48
d:\PDS\SparrowRV-master\bsp\bsp_app\obj/../lib/driver/src/printf.c:258
    while ((len < prec) && (len < PRINTF_NTOA_BUFFER_SIZE)) {
     398:	02000693          	li	a3,32
     39c:	0080006f          	j	3a4 <_ntoa_format+0x80>
d:\PDS\SparrowRV-master\bsp\bsp_app\obj/../lib/driver/src/printf.c:258 (discriminator 1)
     3a0:	20d40a63          	beq	s0,a3,5b4 <_ntoa_format+0x290>
d:\PDS\SparrowRV-master\bsp\bsp_app\obj/../lib/driver/src/printf.c:259
      buf[len++] = '0';
     3a4:	00140413          	addi	s0,s0,1
     3a8:	008907b3          	add	a5,s2,s0
     3ac:	fee78fa3          	sb	a4,-1(a5)
d:\PDS\SparrowRV-master\bsp\bsp_app\obj/../lib/driver/src/printf.c:258
    while ((len < prec) && (len < PRINTF_NTOA_BUFFER_SIZE)) {
     3b0:	ffc468e3          	bltu	s0,t3,3a0 <_ntoa_format+0x7c>
d:\PDS\SparrowRV-master\bsp\bsp_app\obj/../lib/driver/src/printf.c:261
    }
    while ((flags & FLAGS_ZEROPAD) && (len < width) && (len < PRINTF_NTOA_BUFFER_SIZE)) {
     3b4:	02060863          	beqz	a2,3e4 <_ntoa_format+0xc0>
     3b8:	03747663          	bgeu	s0,s7,3e4 <_ntoa_format+0xc0>
     3bc:	02000793          	li	a5,32
d:\PDS\SparrowRV-master\bsp\bsp_app\obj/../lib/driver/src/printf.c:262
      buf[len++] = '0';
     3c0:	03000713          	li	a4,48
d:\PDS\SparrowRV-master\bsp\bsp_app\obj/../lib/driver/src/printf.c:261
    while ((flags & FLAGS_ZEROPAD) && (len < width) && (len < PRINTF_NTOA_BUFFER_SIZE)) {
     3c4:	02000693          	li	a3,32
     3c8:	00f41663          	bne	s0,a5,3d4 <_ntoa_format+0xb0>
     3cc:	1f00006f          	j	5bc <_ntoa_format+0x298>
d:\PDS\SparrowRV-master\bsp\bsp_app\obj/../lib/driver/src/printf.c:261 (discriminator 2)
     3d0:	14d40863          	beq	s0,a3,520 <_ntoa_format+0x1fc>
d:\PDS\SparrowRV-master\bsp\bsp_app\obj/../lib/driver/src/printf.c:262
      buf[len++] = '0';
     3d4:	00140413          	addi	s0,s0,1
     3d8:	008907b3          	add	a5,s2,s0
     3dc:	fee78fa3          	sb	a4,-1(a5)
d:\PDS\SparrowRV-master\bsp\bsp_app\obj/../lib/driver/src/printf.c:261
    while ((flags & FLAGS_ZEROPAD) && (len < width) && (len < PRINTF_NTOA_BUFFER_SIZE)) {
     3e0:	ff7418e3          	bne	s0,s7,3d0 <_ntoa_format+0xac>
d:\PDS\SparrowRV-master\bsp\bsp_app\obj/../lib/driver/src/printf.c:267
    }
  }

  // handle hash
  if (flags & FLAGS_HASH) {
     3e4:	01037793          	andi	a5,t1,16
     3e8:	0e078263          	beqz	a5,4cc <_ntoa_format+0x1a8>
d:\PDS\SparrowRV-master\bsp\bsp_app\obj/../lib/driver/src/printf.c:268
    if (!(flags & FLAGS_PRECISION) && len && ((len == prec) || (len == width))) {
     3ec:	40037793          	andi	a5,t1,1024
     3f0:	14079663          	bnez	a5,53c <_ntoa_format+0x218>
d:\PDS\SparrowRV-master\bsp\bsp_app\obj/../lib/driver/src/printf.c:268 (discriminator 1)
     3f4:	14041063          	bnez	s0,534 <_ntoa_format+0x210>
d:\PDS\SparrowRV-master\bsp\bsp_app\obj/../lib/driver/src/printf.c:274
      len--;
      if (len && (base == 16U)) {
        len--;
      }
    }
    if ((base == 16U) && !(flags & FLAGS_UPPERCASE) && (len < PRINTF_NTOA_BUFFER_SIZE)) {
     3f8:	01000793          	li	a5,16
     3fc:	2cf88263          	beq	a7,a5,6c0 <_ntoa_format+0x39c>
d:\PDS\SparrowRV-master\bsp\bsp_app\obj/../lib/driver/src/printf.c:280
      buf[len++] = 'x';
    }
    else if ((base == 16U) && (flags & FLAGS_UPPERCASE) && (len < PRINTF_NTOA_BUFFER_SIZE)) {
      buf[len++] = 'X';
    }
    else if ((base == 2U) && (len < PRINTF_NTOA_BUFFER_SIZE)) {
     400:	00200793          	li	a5,2
     404:	36f88063          	beq	a7,a5,764 <_ntoa_format+0x440>
d:\PDS\SparrowRV-master\bsp\bsp_app\obj/../lib/driver/src/printf.c:284
      buf[len++] = 'b';
    }
    if (len < PRINTF_NTOA_BUFFER_SIZE) {
      buf[len++] = '0';
     408:	03000793          	li	a5,48
     40c:	00f90023          	sb	a5,0(s2)
     410:	00100413          	li	s0,1
     414:	00337793          	andi	a5,t1,3
d:\PDS\SparrowRV-master\bsp\bsp_app\obj/../lib/driver/src/printf.c:289
    }
  }

  if (len < PRINTF_NTOA_BUFFER_SIZE) {
    if (negative) {
     418:	1e081a63          	bnez	a6,60c <_ntoa_format+0x2e8>
d:\PDS\SparrowRV-master\bsp\bsp_app\obj/../lib/driver/src/printf.c:292
      buf[len++] = '-';
    }
    else if (flags & FLAGS_PLUS) {
     41c:	00437713          	andi	a4,t1,4
     420:	28070263          	beqz	a4,6a4 <_ntoa_format+0x380>
d:\PDS\SparrowRV-master\bsp\bsp_app\obj/../lib/driver/src/printf.c:293
      buf[len++] = '+';  // ignore the space if the '+' exists
     424:	00890733          	add	a4,s2,s0
     428:	02b00693          	li	a3,43
     42c:	00d70023          	sb	a3,0(a4)
     430:	00140413          	addi	s0,s0,1
_out_rev():
d:\PDS\SparrowRV-master\bsp\bsp_app\obj/../lib/driver/src/printf.c:228
  if (!(flags & FLAGS_LEFT) && !(flags & FLAGS_ZEROPAD)) {
     434:	000b0493          	mv	s1,s6
     438:	00079463          	bnez	a5,440 <_ntoa_format+0x11c>
d:\PDS\SparrowRV-master\bsp\bsp_app\obj/../lib/driver/src/printf.c:229
    for (size_t i = len; i < width; i++) {
     43c:	13746663          	bltu	s0,s7,568 <_ntoa_format+0x244>
     440:	00940cb3          	add	s9,s0,s1
     444:	408c8633          	sub	a2,s9,s0
d:\PDS\SparrowRV-master\bsp\bsp_app\obj/../lib/driver/src/printf.c:236
    out(buf[--len], buffer, idx++, maxlen);
     448:	fff40413          	addi	s0,s0,-1
     44c:	008907b3          	add	a5,s2,s0
     450:	0007c503          	lbu	a0,0(a5)
     454:	000a8693          	mv	a3,s5
     458:	000a0593          	mv	a1,s4
     45c:	000c8493          	mv	s1,s9
     460:	000980e7          	jalr	s3
d:\PDS\SparrowRV-master\bsp\bsp_app\obj/../lib/driver/src/printf.c:235
  while (len) {
     464:	fe0410e3          	bnez	s0,444 <_ntoa_format+0x120>
d:\PDS\SparrowRV-master\bsp\bsp_app\obj/../lib/driver/src/printf.c:240
  if (flags & FLAGS_LEFT) {
     468:	020c0663          	beqz	s8,494 <_ntoa_format+0x170>
d:\PDS\SparrowRV-master\bsp\bsp_app\obj/../lib/driver/src/printf.c:241
    while (idx - start_idx < width) {
     46c:	41648b33          	sub	s6,s1,s6
     470:	037b7263          	bgeu	s6,s7,494 <_ntoa_format+0x170>
d:\PDS\SparrowRV-master\bsp\bsp_app\obj/../lib/driver/src/printf.c:242
      out(' ', buffer, idx++, maxlen);
     474:	00048613          	mv	a2,s1
d:\PDS\SparrowRV-master\bsp\bsp_app\obj/../lib/driver/src/printf.c:241
    while (idx - start_idx < width) {
     478:	001b0b13          	addi	s6,s6,1
d:\PDS\SparrowRV-master\bsp\bsp_app\obj/../lib/driver/src/printf.c:242
      out(' ', buffer, idx++, maxlen);
     47c:	000a8693          	mv	a3,s5
     480:	000a0593          	mv	a1,s4
     484:	02000513          	li	a0,32
     488:	00148493          	addi	s1,s1,1
     48c:	000980e7          	jalr	s3
d:\PDS\SparrowRV-master\bsp\bsp_app\obj/../lib/driver/src/printf.c:241
    while (idx - start_idx < width) {
     490:	ff7b62e3          	bltu	s6,s7,474 <_ntoa_format+0x150>
_ntoa_format():
d:\PDS\SparrowRV-master\bsp\bsp_app\obj/../lib/driver/src/printf.c:301
      buf[len++] = ' ';
    }
  }

  return _out_rev(out, buffer, idx, maxlen, buf, len, width, flags);
}
     494:	02c12083          	lw	ra,44(sp)
     498:	02812403          	lw	s0,40(sp)
     49c:	02012903          	lw	s2,32(sp)
     4a0:	01c12983          	lw	s3,28(sp)
     4a4:	01812a03          	lw	s4,24(sp)
     4a8:	01412a83          	lw	s5,20(sp)
     4ac:	01012b03          	lw	s6,16(sp)
     4b0:	00c12b83          	lw	s7,12(sp)
     4b4:	00812c03          	lw	s8,8(sp)
     4b8:	00412c83          	lw	s9,4(sp)
     4bc:	00048513          	mv	a0,s1
     4c0:	02412483          	lw	s1,36(sp)
     4c4:	03010113          	addi	sp,sp,48
     4c8:	00008067          	ret
     4cc:	00337793          	andi	a5,t1,3
d:\PDS\SparrowRV-master\bsp\bsp_app\obj/../lib/driver/src/printf.c:288
  if (len < PRINTF_NTOA_BUFFER_SIZE) {
     4d0:	02000713          	li	a4,32
     4d4:	f4e412e3          	bne	s0,a4,418 <_ntoa_format+0xf4>
_out_rev():
d:\PDS\SparrowRV-master\bsp\bsp_app\obj/../lib/driver/src/printf.c:228
  if (!(flags & FLAGS_LEFT) && !(flags & FLAGS_ZEROPAD)) {
     4d8:	00079463          	bnez	a5,4e0 <_ntoa_format+0x1bc>
d:\PDS\SparrowRV-master\bsp\bsp_app\obj/../lib/driver/src/printf.c:229
    for (size_t i = len; i < width; i++) {
     4dc:	09746663          	bltu	s0,s7,568 <_ntoa_format+0x244>
d:\PDS\SparrowRV-master\bsp\bsp_app\obj/../lib/driver/src/printf.c:228
  if (!(flags & FLAGS_LEFT) && !(flags & FLAGS_ZEROPAD)) {
     4e0:	000b0493          	mv	s1,s6
     4e4:	f5dff06f          	j	440 <_ntoa_format+0x11c>
_ntoa_format():
d:\PDS\SparrowRV-master\bsp\bsp_app\obj/../lib/driver/src/printf.c:255 (discriminator 1)
    if (width && (flags & FLAGS_ZEROPAD) && (negative || (flags & (FLAGS_PLUS | FLAGS_SPACE)))) {
     4e8:	00137613          	andi	a2,t1,1
     4ec:	12060a63          	beqz	a2,620 <_ntoa_format+0x2fc>
d:\PDS\SparrowRV-master\bsp\bsp_app\obj/../lib/driver/src/printf.c:255 (discriminator 2)
     4f0:	16081663          	bnez	a6,65c <_ntoa_format+0x338>
d:\PDS\SparrowRV-master\bsp\bsp_app\obj/../lib/driver/src/printf.c:255 (discriminator 3)
     4f4:	00c37793          	andi	a5,t1,12
     4f8:	16079263          	bnez	a5,65c <_ntoa_format+0x338>
d:\PDS\SparrowRV-master\bsp\bsp_app\obj/../lib/driver/src/printf.c:258
    while ((len < prec) && (len < PRINTF_NTOA_BUFFER_SIZE)) {
     4fc:	ebc47ee3          	bgeu	s0,t3,3b8 <_ntoa_format+0x94>
     500:	02000793          	li	a5,32
     504:	e8f418e3          	bne	s0,a5,394 <_ntoa_format+0x70>
d:\PDS\SparrowRV-master\bsp\bsp_app\obj/../lib/driver/src/printf.c:267
  if (flags & FLAGS_HASH) {
     508:	01037793          	andi	a5,t1,16
d:\PDS\SparrowRV-master\bsp\bsp_app\obj/../lib/driver/src/printf.c:261
    while ((flags & FLAGS_ZEROPAD) && (len < width) && (len < PRINTF_NTOA_BUFFER_SIZE)) {
     50c:	0b746863          	bltu	s0,s7,5bc <_ntoa_format+0x298>
d:\PDS\SparrowRV-master\bsp\bsp_app\obj/../lib/driver/src/printf.c:267
  if (flags & FLAGS_HASH) {
     510:	ec079ee3          	bnez	a5,3ec <_ntoa_format+0xc8>
     514:	00337793          	andi	a5,t1,3
_out_rev():
d:\PDS\SparrowRV-master\bsp\bsp_app\obj/../lib/driver/src/printf.c:228
  if (!(flags & FLAGS_LEFT) && !(flags & FLAGS_ZEROPAD)) {
     518:	fc0794e3          	bnez	a5,4e0 <_ntoa_format+0x1bc>
     51c:	fc1ff06f          	j	4dc <_ntoa_format+0x1b8>
_ntoa_format():
d:\PDS\SparrowRV-master\bsp\bsp_app\obj/../lib/driver/src/printf.c:267
  if (flags & FLAGS_HASH) {
     520:	01037793          	andi	a5,t1,16
     524:	14078663          	beqz	a5,670 <_ntoa_format+0x34c>
d:\PDS\SparrowRV-master\bsp\bsp_app\obj/../lib/driver/src/printf.c:268
    if (!(flags & FLAGS_PRECISION) && len && ((len == prec) || (len == width))) {
     528:	40037793          	andi	a5,t1,1024
     52c:	02000413          	li	s0,32
     530:	00079663          	bnez	a5,53c <_ntoa_format+0x218>
d:\PDS\SparrowRV-master\bsp\bsp_app\obj/../lib/driver/src/printf.c:268 (discriminator 2)
     534:	128e0863          	beq	t3,s0,664 <_ntoa_format+0x340>
d:\PDS\SparrowRV-master\bsp\bsp_app\obj/../lib/driver/src/printf.c:268 (discriminator 3)
     538:	13740663          	beq	s0,s7,664 <_ntoa_format+0x340>
d:\PDS\SparrowRV-master\bsp\bsp_app\obj/../lib/driver/src/printf.c:274
    if ((base == 16U) && !(flags & FLAGS_UPPERCASE) && (len < PRINTF_NTOA_BUFFER_SIZE)) {
     53c:	01000793          	li	a5,16
     540:	12f88e63          	beq	a7,a5,67c <_ntoa_format+0x358>
d:\PDS\SparrowRV-master\bsp\bsp_app\obj/../lib/driver/src/printf.c:280
    else if ((base == 2U) && (len < PRINTF_NTOA_BUFFER_SIZE)) {
     544:	00200793          	li	a5,2
     548:	0ef88c63          	beq	a7,a5,640 <_ntoa_format+0x31c>
_out_rev():
d:\PDS\SparrowRV-master\bsp\bsp_app\obj/../lib/driver/src/printf.c:228
  if (!(flags & FLAGS_LEFT) && !(flags & FLAGS_ZEROPAD)) {
     54c:	00337793          	andi	a5,t1,3
_ntoa_format():
d:\PDS\SparrowRV-master\bsp\bsp_app\obj/../lib/driver/src/printf.c:283
    if (len < PRINTF_NTOA_BUFFER_SIZE) {
     550:	02000693          	li	a3,32
_out_rev():
d:\PDS\SparrowRV-master\bsp\bsp_app\obj/../lib/driver/src/printf.c:228
  if (!(flags & FLAGS_LEFT) && !(flags & FLAGS_ZEROPAD)) {
     554:	00078713          	mv	a4,a5
_ntoa_format():
d:\PDS\SparrowRV-master\bsp\bsp_app\obj/../lib/driver/src/printf.c:283
    if (len < PRINTF_NTOA_BUFFER_SIZE) {
     558:	1ed41463          	bne	s0,a3,740 <_ntoa_format+0x41c>
_out_rev():
d:\PDS\SparrowRV-master\bsp\bsp_app\obj/../lib/driver/src/printf.c:228
  if (!(flags & FLAGS_LEFT) && !(flags & FLAGS_ZEROPAD)) {
     55c:	0e071a63          	bnez	a4,650 <_ntoa_format+0x32c>
d:\PDS\SparrowRV-master\bsp\bsp_app\obj/../lib/driver/src/printf.c:229
    for (size_t i = len; i < width; i++) {
     560:	02000413          	li	s0,32
     564:	f7747ee3          	bgeu	s0,s7,4e0 <_ntoa_format+0x1bc>
     568:	000b0493          	mv	s1,s6
     56c:	41640cb3          	sub	s9,s0,s6
d:\PDS\SparrowRV-master\bsp\bsp_app\obj/../lib/driver/src/printf.c:230
      out(' ', buffer, idx++, maxlen);
     570:	00048613          	mv	a2,s1
     574:	000a8693          	mv	a3,s5
     578:	000a0593          	mv	a1,s4
     57c:	02000513          	li	a0,32
     580:	00148493          	addi	s1,s1,1
     584:	000980e7          	jalr	s3
d:\PDS\SparrowRV-master\bsp\bsp_app\obj/../lib/driver/src/printf.c:229
    for (size_t i = len; i < width; i++) {
     588:	009c87b3          	add	a5,s9,s1
     58c:	ff77e2e3          	bltu	a5,s7,570 <_ntoa_format+0x24c>
d:\PDS\SparrowRV-master\bsp\bsp_app\obj/../lib/driver/src/printf.c:230
      out(' ', buffer, idx++, maxlen);
     590:	00140793          	addi	a5,s0,1
     594:	00000493          	li	s1,0
     598:	00fbe663          	bltu	s7,a5,5a4 <_ntoa_format+0x280>
     59c:	fffb8493          	addi	s1,s7,-1
     5a0:	408484b3          	sub	s1,s1,s0
     5a4:	001b0793          	addi	a5,s6,1
     5a8:	00f484b3          	add	s1,s1,a5
d:\PDS\SparrowRV-master\bsp\bsp_app\obj/../lib/driver/src/printf.c:235
  while (len) {
     5ac:	e8041ae3          	bnez	s0,440 <_ntoa_format+0x11c>
     5b0:	eb9ff06f          	j	468 <_ntoa_format+0x144>
_ntoa_format():
d:\PDS\SparrowRV-master\bsp\bsp_app\obj/../lib/driver/src/printf.c:261
    while ((flags & FLAGS_ZEROPAD) && (len < width) && (len < PRINTF_NTOA_BUFFER_SIZE)) {
     5b4:	1c060e63          	beqz	a2,790 <_ntoa_format+0x46c>
     5b8:	f77474e3          	bgeu	s0,s7,520 <_ntoa_format+0x1fc>
d:\PDS\SparrowRV-master\bsp\bsp_app\obj/../lib/driver/src/printf.c:267
  if (flags & FLAGS_HASH) {
     5bc:	01037793          	andi	a5,t1,16
     5c0:	0a078863          	beqz	a5,670 <_ntoa_format+0x34c>
d:\PDS\SparrowRV-master\bsp\bsp_app\obj/../lib/driver/src/printf.c:268
    if (!(flags & FLAGS_PRECISION) && len && ((len == prec) || (len == width))) {
     5c4:	40037793          	andi	a5,t1,1024
     5c8:	1e079263          	bnez	a5,7ac <_ntoa_format+0x488>
     5cc:	02000793          	li	a5,32
     5d0:	1efe0a63          	beq	t3,a5,7c4 <_ntoa_format+0x4a0>
     5d4:	02000413          	li	s0,32
     5d8:	f6fb92e3          	bne	s7,a5,53c <_ntoa_format+0x218>
d:\PDS\SparrowRV-master\bsp\bsp_app\obj/../lib/driver/src/printf.c:269
      len--;
     5dc:	02000b93          	li	s7,32
     5e0:	02000413          	li	s0,32
     5e4:	01f00713          	li	a4,31
d:\PDS\SparrowRV-master\bsp\bsp_app\obj/../lib/driver/src/printf.c:270
      if (len && (base == 16U)) {
     5e8:	01000793          	li	a5,16
     5ec:	12f88a63          	beq	a7,a5,720 <_ntoa_format+0x3fc>
d:\PDS\SparrowRV-master\bsp\bsp_app\obj/../lib/driver/src/printf.c:280
    else if ((base == 2U) && (len < PRINTF_NTOA_BUFFER_SIZE)) {
     5f0:	00200793          	li	a5,2
     5f4:	16f88063          	beq	a7,a5,754 <_ntoa_format+0x430>
     5f8:	00337793          	andi	a5,t1,3
d:\PDS\SparrowRV-master\bsp\bsp_app\obj/../lib/driver/src/printf.c:284
      buf[len++] = '0';
     5fc:	00e90733          	add	a4,s2,a4
     600:	03000693          	li	a3,48
     604:	00d70023          	sb	a3,0(a4)
     608:	ec9ff06f          	j	4d0 <_ntoa_format+0x1ac>
d:\PDS\SparrowRV-master\bsp\bsp_app\obj/../lib/driver/src/printf.c:290
      buf[len++] = '-';
     60c:	00890733          	add	a4,s2,s0
     610:	02d00693          	li	a3,45
     614:	00d70023          	sb	a3,0(a4)
     618:	00140413          	addi	s0,s0,1
     61c:	e19ff06f          	j	434 <_ntoa_format+0x110>
d:\PDS\SparrowRV-master\bsp\bsp_app\obj/../lib/driver/src/printf.c:258
    while ((len < prec) && (len < PRINTF_NTOA_BUFFER_SIZE)) {
     620:	ddc7f2e3          	bgeu	a5,t3,3e4 <_ntoa_format+0xc0>
     624:	02000793          	li	a5,32
     628:	d6f416e3          	bne	s0,a5,394 <_ntoa_format+0x70>
d:\PDS\SparrowRV-master\bsp\bsp_app\obj/../lib/driver/src/printf.c:267
  if (flags & FLAGS_HASH) {
     62c:	01037793          	andi	a5,t1,16
     630:	ee0782e3          	beqz	a5,514 <_ntoa_format+0x1f0>
d:\PDS\SparrowRV-master\bsp\bsp_app\obj/../lib/driver/src/printf.c:268
    if (!(flags & FLAGS_PRECISION) && len && ((len == prec) || (len == width))) {
     634:	40037793          	andi	a5,t1,1024
     638:	f00792e3          	bnez	a5,53c <_ntoa_format+0x218>
     63c:	ef9ff06f          	j	534 <_ntoa_format+0x210>
d:\PDS\SparrowRV-master\bsp\bsp_app\obj/../lib/driver/src/printf.c:280 (discriminator 1)
    else if ((base == 2U) && (len < PRINTF_NTOA_BUFFER_SIZE)) {
     640:	02000793          	li	a5,32
     644:	10f41463          	bne	s0,a5,74c <_ntoa_format+0x428>
_out_rev():
d:\PDS\SparrowRV-master\bsp\bsp_app\obj/../lib/driver/src/printf.c:228
  if (!(flags & FLAGS_LEFT) && !(flags & FLAGS_ZEROPAD)) {
     648:	00337313          	andi	t1,t1,3
     64c:	f0030ae3          	beqz	t1,560 <_ntoa_format+0x23c>
     650:	000b0493          	mv	s1,s6
     654:	02000413          	li	s0,32
     658:	de9ff06f          	j	440 <_ntoa_format+0x11c>
_ntoa_format():
d:\PDS\SparrowRV-master\bsp\bsp_app\obj/../lib/driver/src/printf.c:256
      width--;
     65c:	fffb8b93          	addi	s7,s7,-1
     660:	e9dff06f          	j	4fc <_ntoa_format+0x1d8>
d:\PDS\SparrowRV-master\bsp\bsp_app\obj/../lib/driver/src/printf.c:269
      len--;
     664:	fff40713          	addi	a4,s0,-1
d:\PDS\SparrowRV-master\bsp\bsp_app\obj/../lib/driver/src/printf.c:270
      if (len && (base == 16U)) {
     668:	d80708e3          	beqz	a4,3f8 <_ntoa_format+0xd4>
     66c:	f7dff06f          	j	5e8 <_ntoa_format+0x2c4>
d:\PDS\SparrowRV-master\bsp\bsp_app\obj/../lib/driver/src/printf.c:267
  if (flags & FLAGS_HASH) {
     670:	02000413          	li	s0,32
     674:	00337793          	andi	a5,t1,3
     678:	ea1ff06f          	j	518 <_ntoa_format+0x1f4>
d:\PDS\SparrowRV-master\bsp\bsp_app\obj/../lib/driver/src/printf.c:274 (discriminator 1)
    if ((base == 16U) && !(flags & FLAGS_UPPERCASE) && (len < PRINTF_NTOA_BUFFER_SIZE)) {
     67c:	02037793          	andi	a5,t1,32
     680:	06079463          	bnez	a5,6e8 <_ntoa_format+0x3c4>
d:\PDS\SparrowRV-master\bsp\bsp_app\obj/../lib/driver/src/printf.c:274 (discriminator 2)
     684:	02000713          	li	a4,32
     688:	00337793          	andi	a5,t1,3
     68c:	dae404e3          	beq	s0,a4,434 <_ntoa_format+0x110>
d:\PDS\SparrowRV-master\bsp\bsp_app\obj/../lib/driver/src/printf.c:275
      buf[len++] = 'x';
     690:	008907b3          	add	a5,s2,s0
     694:	07800713          	li	a4,120
     698:	00e78023          	sb	a4,0(a5)
     69c:	00140413          	addi	s0,s0,1
     6a0:	eadff06f          	j	54c <_ntoa_format+0x228>
d:\PDS\SparrowRV-master\bsp\bsp_app\obj/../lib/driver/src/printf.c:295
    else if (flags & FLAGS_SPACE) {
     6a4:	00837313          	andi	t1,t1,8
     6a8:	04031e63          	bnez	t1,704 <_ntoa_format+0x3e0>
_out_rev():
d:\PDS\SparrowRV-master\bsp\bsp_app\obj/../lib/driver/src/printf.c:228
  if (!(flags & FLAGS_LEFT) && !(flags & FLAGS_ZEROPAD)) {
     6ac:	000b0493          	mv	s1,s6
     6b0:	ee079ee3          	bnez	a5,5ac <_ntoa_format+0x288>
d:\PDS\SparrowRV-master\bsp\bsp_app\obj/../lib/driver/src/printf.c:229
    for (size_t i = len; i < width; i++) {
     6b4:	eb746ae3          	bltu	s0,s7,568 <_ntoa_format+0x244>
d:\PDS\SparrowRV-master\bsp\bsp_app\obj/../lib/driver/src/printf.c:235
  while (len) {
     6b8:	d80414e3          	bnez	s0,440 <_ntoa_format+0x11c>
     6bc:	dadff06f          	j	468 <_ntoa_format+0x144>
_ntoa_format():
d:\PDS\SparrowRV-master\bsp\bsp_app\obj/../lib/driver/src/printf.c:274
    if ((base == 16U) && !(flags & FLAGS_UPPERCASE) && (len < PRINTF_NTOA_BUFFER_SIZE)) {
     6c0:	02037793          	andi	a5,t1,32
     6c4:	04079a63          	bnez	a5,718 <_ntoa_format+0x3f4>
     6c8:	07800793          	li	a5,120
d:\PDS\SparrowRV-master\bsp\bsp_app\obj/../lib/driver/src/printf.c:275
      buf[len++] = 'x';
     6cc:	00f90023          	sb	a5,0(s2)
d:\PDS\SparrowRV-master\bsp\bsp_app\obj/../lib/driver/src/printf.c:284
      buf[len++] = '0';
     6d0:	03000793          	li	a5,48
     6d4:	00f900a3          	sb	a5,1(s2)
     6d8:	00200413          	li	s0,2
     6dc:	00337793          	andi	a5,t1,3
d:\PDS\SparrowRV-master\bsp\bsp_app\obj/../lib/driver/src/printf.c:289
    if (negative) {
     6e0:	d2080ee3          	beqz	a6,41c <_ntoa_format+0xf8>
     6e4:	f29ff06f          	j	60c <_ntoa_format+0x2e8>
d:\PDS\SparrowRV-master\bsp\bsp_app\obj/../lib/driver/src/printf.c:277
    else if ((base == 16U) && (flags & FLAGS_UPPERCASE) && (len < PRINTF_NTOA_BUFFER_SIZE)) {
     6e8:	02000793          	li	a5,32
     6ec:	f4f40ee3          	beq	s0,a5,648 <_ntoa_format+0x324>
d:\PDS\SparrowRV-master\bsp\bsp_app\obj/../lib/driver/src/printf.c:278
      buf[len++] = 'X';
     6f0:	008907b3          	add	a5,s2,s0
     6f4:	05800713          	li	a4,88
     6f8:	00e78023          	sb	a4,0(a5)
     6fc:	00140413          	addi	s0,s0,1
     700:	e4dff06f          	j	54c <_ntoa_format+0x228>
d:\PDS\SparrowRV-master\bsp\bsp_app\obj/../lib/driver/src/printf.c:296
      buf[len++] = ' ';
     704:	00890733          	add	a4,s2,s0
     708:	02000693          	li	a3,32
     70c:	00d70023          	sb	a3,0(a4)
     710:	00140413          	addi	s0,s0,1
     714:	d21ff06f          	j	434 <_ntoa_format+0x110>
d:\PDS\SparrowRV-master\bsp\bsp_app\obj/../lib/driver/src/printf.c:278
      buf[len++] = 'X';
     718:	05800793          	li	a5,88
     71c:	fb1ff06f          	j	6cc <_ntoa_format+0x3a8>
d:\PDS\SparrowRV-master\bsp\bsp_app\obj/../lib/driver/src/printf.c:271
        len--;
     720:	ffe40793          	addi	a5,s0,-2
d:\PDS\SparrowRV-master\bsp\bsp_app\obj/../lib/driver/src/printf.c:274
    if ((base == 16U) && !(flags & FLAGS_UPPERCASE) && (len < PRINTF_NTOA_BUFFER_SIZE)) {
     724:	02037693          	andi	a3,t1,32
d:\PDS\SparrowRV-master\bsp\bsp_app\obj/../lib/driver/src/printf.c:275
      buf[len++] = 'x';
     728:	00f907b3          	add	a5,s2,a5
d:\PDS\SparrowRV-master\bsp\bsp_app\obj/../lib/driver/src/printf.c:274
    if ((base == 16U) && !(flags & FLAGS_UPPERCASE) && (len < PRINTF_NTOA_BUFFER_SIZE)) {
     72c:	04069863          	bnez	a3,77c <_ntoa_format+0x458>
d:\PDS\SparrowRV-master\bsp\bsp_app\obj/../lib/driver/src/printf.c:275
      buf[len++] = 'x';
     730:	07800693          	li	a3,120
     734:	00d78023          	sb	a3,0(a5)
     738:	00070413          	mv	s0,a4
     73c:	00337793          	andi	a5,t1,3
_out_rev():
d:\PDS\SparrowRV-master\bsp\bsp_app\obj/../lib/driver/src/printf.c:229
    for (size_t i = len; i < width; i++) {
     740:	00040713          	mv	a4,s0
     744:	00140413          	addi	s0,s0,1
     748:	eb5ff06f          	j	5fc <_ntoa_format+0x2d8>
     74c:	00040713          	mv	a4,s0
     750:	00140413          	addi	s0,s0,1
_ntoa_format():
d:\PDS\SparrowRV-master\bsp\bsp_app\obj/../lib/driver/src/printf.c:281
      buf[len++] = 'b';
     754:	00e90733          	add	a4,s2,a4
     758:	06200793          	li	a5,98
     75c:	00f70023          	sb	a5,0(a4)
     760:	dedff06f          	j	54c <_ntoa_format+0x228>
d:\PDS\SparrowRV-master\bsp\bsp_app\obj/../lib/driver/src/printf.c:280
    else if ((base == 2U) && (len < PRINTF_NTOA_BUFFER_SIZE)) {
     764:	06200793          	li	a5,98
     768:	f65ff06f          	j	6cc <_ntoa_format+0x3a8>
d:\PDS\SparrowRV-master\bsp\bsp_app\obj/../lib/driver/src/printf.c:267
  if (flags & FLAGS_HASH) {
     76c:	01037793          	andi	a5,t1,16
d:\PDS\SparrowRV-master\bsp\bsp_app\obj/../lib/driver/src/printf.c:261
    while ((flags & FLAGS_ZEROPAD) && (len < width) && (len < PRINTF_NTOA_BUFFER_SIZE)) {
     770:	ec0600e3          	beqz	a2,630 <_ntoa_format+0x30c>
d:\PDS\SparrowRV-master\bsp\bsp_app\obj/../lib/driver/src/printf.c:267
  if (flags & FLAGS_HASH) {
     774:	c6079ce3          	bnez	a5,3ec <_ntoa_format+0xc8>
     778:	d9dff06f          	j	514 <_ntoa_format+0x1f0>
d:\PDS\SparrowRV-master\bsp\bsp_app\obj/../lib/driver/src/printf.c:278
      buf[len++] = 'X';
     77c:	05800713          	li	a4,88
     780:	00e78023          	sb	a4,0(a5)
_out_rev():
d:\PDS\SparrowRV-master\bsp\bsp_app\obj/../lib/driver/src/printf.c:229
    for (size_t i = len; i < width; i++) {
     784:	fff40413          	addi	s0,s0,-1
_ntoa_format():
d:\PDS\SparrowRV-master\bsp\bsp_app\obj/../lib/driver/src/printf.c:283
    if (len < PRINTF_NTOA_BUFFER_SIZE) {
     788:	00337793          	andi	a5,t1,3
     78c:	fb5ff06f          	j	740 <_ntoa_format+0x41c>
d:\PDS\SparrowRV-master\bsp\bsp_app\obj/../lib/driver/src/printf.c:267
  if (flags & FLAGS_HASH) {
     790:	01037793          	andi	a5,t1,16
     794:	d80780e3          	beqz	a5,514 <_ntoa_format+0x1f0>
d:\PDS\SparrowRV-master\bsp\bsp_app\obj/../lib/driver/src/printf.c:268
    if (!(flags & FLAGS_PRECISION) && len && ((len == prec) || (len == width))) {
     798:	40037793          	andi	a5,t1,1024
     79c:	04079463          	bnez	a5,7e4 <_ntoa_format+0x4c0>
     7a0:	02000793          	li	a5,32
     7a4:	d8fb9ce3          	bne	s7,a5,53c <_ntoa_format+0x218>
     7a8:	e35ff06f          	j	5dc <_ntoa_format+0x2b8>
d:\PDS\SparrowRV-master\bsp\bsp_app\obj/../lib/driver/src/printf.c:274
    if ((base == 16U) && !(flags & FLAGS_UPPERCASE) && (len < PRINTF_NTOA_BUFFER_SIZE)) {
     7ac:	01000793          	li	a5,16
     7b0:	02f88063          	beq	a7,a5,7d0 <_ntoa_format+0x4ac>
d:\PDS\SparrowRV-master\bsp\bsp_app\obj/../lib/driver/src/printf.c:280
    else if ((base == 2U) && (len < PRINTF_NTOA_BUFFER_SIZE)) {
     7b4:	00200793          	li	a5,2
_out_rev():
d:\PDS\SparrowRV-master\bsp\bsp_app\obj/../lib/driver/src/printf.c:228
  if (!(flags & FLAGS_LEFT) && !(flags & FLAGS_ZEROPAD)) {
     7b8:	00337713          	andi	a4,t1,3
_ntoa_format():
d:\PDS\SparrowRV-master\bsp\bsp_app\obj/../lib/driver/src/printf.c:280
    else if ((base == 2U) && (len < PRINTF_NTOA_BUFFER_SIZE)) {
     7bc:	daf890e3          	bne	a7,a5,55c <_ntoa_format+0x238>
     7c0:	e89ff06f          	j	648 <_ntoa_format+0x324>
d:\PDS\SparrowRV-master\bsp\bsp_app\obj/../lib/driver/src/printf.c:268
    if (!(flags & FLAGS_PRECISION) && len && ((len == prec) || (len == width))) {
     7c4:	02000413          	li	s0,32
d:\PDS\SparrowRV-master\bsp\bsp_app\obj/../lib/driver/src/printf.c:269
      len--;
     7c8:	01f00713          	li	a4,31
     7cc:	e1dff06f          	j	5e8 <_ntoa_format+0x2c4>
d:\PDS\SparrowRV-master\bsp\bsp_app\obj/../lib/driver/src/printf.c:274
    if ((base == 16U) && !(flags & FLAGS_UPPERCASE) && (len < PRINTF_NTOA_BUFFER_SIZE)) {
     7d0:	02037793          	andi	a5,t1,32
     7d4:	e6079ae3          	bnez	a5,648 <_ntoa_format+0x324>
     7d8:	02000413          	li	s0,32
     7dc:	00337793          	andi	a5,t1,3
     7e0:	c55ff06f          	j	434 <_ntoa_format+0x110>
     7e4:	01000793          	li	a5,16
     7e8:	fcf896e3          	bne	a7,a5,7b4 <_ntoa_format+0x490>
     7ec:	02037793          	andi	a5,t1,32
     7f0:	e4079ce3          	bnez	a5,648 <_ntoa_format+0x324>
     7f4:	00337793          	andi	a5,t1,3
     7f8:	c3dff06f          	j	434 <_ntoa_format+0x110>

000007fc <_out_char>:
_out_char():
d:\PDS\SparrowRV-master\bsp\bsp_app\obj/../lib/driver/src/printf.c:176
  if (character) {
     7fc:	00050e63          	beqz	a0,818 <_out_char+0x1c>
_putchar():
d:\PDS\SparrowRV-master\bsp\bsp_app\obj/../lib/driver/src/printf.c:57
  while (SYS_RWMEM_W(UART_STATUS(UART0)) & 0x1); //等待上一个操作结束
     800:	40000737          	lui	a4,0x40000
     804:	00472783          	lw	a5,4(a4) # 40000004 <_sp+0x1ffc0004>
     808:	0017f793          	andi	a5,a5,1
     80c:	fe079ce3          	bnez	a5,804 <_out_char+0x8>
d:\PDS\SparrowRV-master\bsp\bsp_app\obj/../lib/driver/src/printf.c:58
  SYS_RWMEM_W(UART_TXDATA(UART0)) = character;
     810:	00a72623          	sw	a0,12(a4)
d:\PDS\SparrowRV-master\bsp\bsp_app\obj/../lib/driver/src/printf.c:60
  write_csr(msprint, character);//msprint
     814:	34651073          	csrw	0x346,a0
_out_char():
d:\PDS\SparrowRV-master\bsp\bsp_app\obj/../lib/driver/src/printf.c:179
}
     818:	00008067          	ret

0000081c <_vsnprintf>:
_vsnprintf():
d:\PDS\SparrowRV-master\bsp\bsp_app\obj/../lib/driver/src/printf.c:602
#endif  // PRINTF_SUPPORT_FLOAT


// internal vsnprintf
static int _vsnprintf(out_fct_type out, char* buffer, const size_t maxlen, const char* format, va_list va)
{
     81c:	f6010113          	addi	sp,sp,-160
     820:	09212823          	sw	s2,144(sp)
     824:	09312623          	sw	s3,140(sp)
     828:	09412423          	sw	s4,136(sp)
     82c:	07812c23          	sw	s8,120(sp)
     830:	07a12823          	sw	s10,112(sp)
     834:	08112e23          	sw	ra,156(sp)
     838:	08812c23          	sw	s0,152(sp)
     83c:	08912a23          	sw	s1,148(sp)
     840:	09512223          	sw	s5,132(sp)
     844:	09612023          	sw	s6,128(sp)
     848:	07712e23          	sw	s7,124(sp)
     84c:	07912a23          	sw	s9,116(sp)
     850:	07b12623          	sw	s11,108(sp)
     854:	00058993          	mv	s3,a1
     858:	00060913          	mv	s2,a2
     85c:	00068c13          	mv	s8,a3
     860:	00070d13          	mv	s10,a4
     864:	00050a13          	mv	s4,a0
d:\PDS\SparrowRV-master\bsp\bsp_app\obj/../lib/driver/src/printf.c:606
  unsigned int flags, width, precision, n;
  size_t idx = 0U;

  if (!buffer) {
     868:	54058663          	beqz	a1,db4 <_vsnprintf+0x598>
d:\PDS\SparrowRV-master\bsp\bsp_app\obj/../lib/driver/src/printf.c:611
    // use null output function
    out = _out_null;
  }

  while (*format)
     86c:	000c4503          	lbu	a0,0(s8)
     870:	00000413          	li	s0,0
     874:	54050863          	beqz	a0,dc4 <_vsnprintf+0x5a8>
d:\PDS\SparrowRV-master\bsp\bsp_app\obj/../lib/driver/src/printf.c:707
      default :
        break;
    }

    // evaluate specifier
    switch (*format) {
     878:	001217b7          	lui	a5,0x121
d:\PDS\SparrowRV-master\bsp\bsp_app\obj/../lib/driver/src/printf.c:628
      switch (*format) {
     87c:	20000ab7          	lui	s5,0x20000
d:\PDS\SparrowRV-master\bsp\bsp_app\obj/../lib/driver/src/printf.c:707
    switch (*format) {
     880:	82178793          	addi	a5,a5,-2015 # 120821 <_app_prog_size+0xe0821>
d:\PDS\SparrowRV-master\bsp\bsp_app\obj/../lib/driver/src/printf.c:614
    if (*format != '%') {
     884:	02500b13          	li	s6,37
d:\PDS\SparrowRV-master\bsp\bsp_app\obj/../lib/driver/src/printf.c:628
      switch (*format) {
     888:	01000493          	li	s1,16
     88c:	000a8a93          	mv	s5,s5
d:\PDS\SparrowRV-master\bsp\bsp_app\obj/../lib/driver/src/printf.c:640
    if (_is_digit(*format)) {
     890:	00900b93          	li	s7,9
d:\PDS\SparrowRV-master\bsp\bsp_app\obj/../lib/driver/src/printf.c:707
    switch (*format) {
     894:	00f12c23          	sw	a5,24(sp)
     898:	00040313          	mv	t1,s0
     89c:	0240006f          	j	8c0 <_vsnprintf+0xa4>
d:\PDS\SparrowRV-master\bsp\bsp_app\obj/../lib/driver/src/printf.c:870
        out('%', buffer, idx++, maxlen);
        format++;
        break;

      default :
        out(*format, buffer, idx++, maxlen);
     8a0:	00030613          	mv	a2,t1
     8a4:	00090693          	mv	a3,s2
     8a8:	00098593          	mv	a1,s3
     8ac:	00130413          	addi	s0,t1,1
     8b0:	000a00e7          	jalr	s4
     8b4:	00040313          	mv	t1,s0
d:\PDS\SparrowRV-master\bsp\bsp_app\obj/../lib/driver/src/printf.c:611
  while (*format)
     8b8:	000c4503          	lbu	a0,0(s8)
     8bc:	10050663          	beqz	a0,9c8 <_vsnprintf+0x1ac>
d:\PDS\SparrowRV-master\bsp\bsp_app\obj/../lib/driver/src/printf.c:617
      format++;
     8c0:	001c0c13          	addi	s8,s8,1
d:\PDS\SparrowRV-master\bsp\bsp_app\obj/../lib/driver/src/printf.c:614
    if (*format != '%') {
     8c4:	fd651ee3          	bne	a0,s6,8a0 <_vsnprintf+0x84>
d:\PDS\SparrowRV-master\bsp\bsp_app\obj/../lib/driver/src/printf.c:626
    flags = 0U;
     8c8:	00000693          	li	a3,0
d:\PDS\SparrowRV-master\bsp\bsp_app\obj/../lib/driver/src/printf.c:628
      switch (*format) {
     8cc:	000c4503          	lbu	a0,0(s8)
d:\PDS\SparrowRV-master\bsp\bsp_app\obj/../lib/driver/src/printf.c:652
      format++;
     8d0:	001c0713          	addi	a4,s8,1
d:\PDS\SparrowRV-master\bsp\bsp_app\obj/../lib/driver/src/printf.c:628
      switch (*format) {
     8d4:	fe050793          	addi	a5,a0,-32
     8d8:	0ff7f793          	zext.b	a5,a5
     8dc:	00f4ea63          	bltu	s1,a5,8f0 <_vsnprintf+0xd4>
     8e0:	00279793          	slli	a5,a5,0x2
     8e4:	015787b3          	add	a5,a5,s5
     8e8:	0007a783          	lw	a5,0(a5)
     8ec:	00078067          	jr	a5
_is_digit():
d:\PDS\SparrowRV-master\bsp\bsp_app\obj/../lib/driver/src/printf.c:207
  return (ch >= '0') && (ch <= '9');
     8f0:	fd050793          	addi	a5,a0,-48
_vsnprintf():
d:\PDS\SparrowRV-master\bsp\bsp_app\obj/../lib/driver/src/printf.c:640
    if (_is_digit(*format)) {
     8f4:	0ff7f793          	zext.b	a5,a5
     8f8:	2cfbfc63          	bgeu	s7,a5,bd0 <_vsnprintf+0x3b4>
d:\PDS\SparrowRV-master\bsp\bsp_app\obj/../lib/driver/src/printf.c:643
    else if (*format == '*') {
     8fc:	02a00793          	li	a5,42
d:\PDS\SparrowRV-master\bsp\bsp_app\obj/../lib/driver/src/printf.c:639
    width = 0U;
     900:	00000413          	li	s0,0
d:\PDS\SparrowRV-master\bsp\bsp_app\obj/../lib/driver/src/printf.c:643
    else if (*format == '*') {
     904:	36f50a63          	beq	a0,a5,c78 <_vsnprintf+0x45c>
d:\PDS\SparrowRV-master\bsp\bsp_app\obj/../lib/driver/src/printf.c:657
    if (*format == '.') {
     908:	02e00793          	li	a5,46
d:\PDS\SparrowRV-master\bsp\bsp_app\obj/../lib/driver/src/printf.c:656
    precision = 0U;
     90c:	00000e13          	li	t3,0
d:\PDS\SparrowRV-master\bsp\bsp_app\obj/../lib/driver/src/printf.c:657
    if (*format == '.') {
     910:	30f50663          	beq	a0,a5,c1c <_vsnprintf+0x400>
d:\PDS\SparrowRV-master\bsp\bsp_app\obj/../lib/driver/src/printf.c:671
    switch (*format) {
     914:	06c00793          	li	a5,108
d:\PDS\SparrowRV-master\bsp\bsp_app\obj/../lib/driver/src/printf.c:674
        format++;
     918:	00070613          	mv	a2,a4
d:\PDS\SparrowRV-master\bsp\bsp_app\obj/../lib/driver/src/printf.c:671
    switch (*format) {
     91c:	32f50c63          	beq	a0,a5,c54 <_vsnprintf+0x438>
     920:	34a7e263          	bltu	a5,a0,c64 <_vsnprintf+0x448>
     924:	06800793          	li	a5,104
     928:	38f50263          	beq	a0,a5,cac <_vsnprintf+0x490>
     92c:	06a00793          	li	a5,106
     930:	16f516e3          	bne	a0,a5,129c <_vsnprintf+0xa80>
d:\PDS\SparrowRV-master\bsp\bsp_app\obj/../lib/driver/src/printf.c:675
        if (*format == 'l') {
     934:	001c4503          	lbu	a0,1(s8)
d:\PDS\SparrowRV-master\bsp\bsp_app\obj/../lib/driver/src/printf.c:695
        flags |= (sizeof(intmax_t) == sizeof(long) ? FLAGS_LONG : FLAGS_LONG_LONG);
     938:	2006e693          	ori	a3,a3,512
d:\PDS\SparrowRV-master\bsp\bsp_app\obj/../lib/driver/src/printf.c:707
    switch (*format) {
     93c:	07800793          	li	a5,120
d:\PDS\SparrowRV-master\bsp\bsp_app\obj/../lib/driver/src/printf.c:778
        format++;
     940:	00160c13          	addi	s8,a2,1
d:\PDS\SparrowRV-master\bsp\bsp_app\obj/../lib/driver/src/printf.c:707
    switch (*format) {
     944:	f4a7eee3          	bltu	a5,a0,8a0 <_vsnprintf+0x84>
     948:	06300793          	li	a5,99
     94c:	12a7e463          	bltu	a5,a0,a74 <_vsnprintf+0x258>
     950:	06200713          	li	a4,98
     954:	66e50c63          	beq	a0,a4,fcc <_vsnprintf+0x7b0>
     958:	1cf51663          	bne	a0,a5,b24 <_vsnprintf+0x308>
d:\PDS\SparrowRV-master\bsp\bsp_app\obj/../lib/driver/src/printf.c:755
            const long value = va_arg(va, long);
     95c:	004d0793          	addi	a5,s10,4
d:\PDS\SparrowRV-master\bsp\bsp_app\obj/../lib/driver/src/printf.c:803
        if (!(flags & FLAGS_LEFT)) {
     960:	0026f693          	andi	a3,a3,2
d:\PDS\SparrowRV-master\bsp\bsp_app\obj/../lib/driver/src/printf.c:755
            const long value = va_arg(va, long);
     964:	00f12e23          	sw	a5,28(sp)
d:\PDS\SparrowRV-master\bsp\bsp_app\obj/../lib/driver/src/printf.c:616
      out(*format, buffer, idx++, maxlen);
     968:	00130c93          	addi	s9,t1,1
d:\PDS\SparrowRV-master\bsp\bsp_app\obj/../lib/driver/src/printf.c:803
        if (!(flags & FLAGS_LEFT)) {
     96c:	4e068a63          	beqz	a3,e60 <_vsnprintf+0x644>
d:\PDS\SparrowRV-master\bsp\bsp_app\obj/../lib/driver/src/printf.c:809
        out((char)va_arg(va, int), buffer, idx++, maxlen);
     970:	000d4503          	lbu	a0,0(s10)
     974:	00030613          	mv	a2,t1
     978:	02612023          	sw	t1,32(sp)
     97c:	00090693          	mv	a3,s2
     980:	00098593          	mv	a1,s3
     984:	000a00e7          	jalr	s4
d:\PDS\SparrowRV-master\bsp\bsp_app\obj/../lib/driver/src/printf.c:812
          while (l++ < width) {
     988:	02012303          	lw	t1,32(sp)
     98c:	00100793          	li	a5,1
     990:	00830333          	add	t1,t1,s0
     994:	0e87fee3          	bgeu	a5,s0,1290 <_vsnprintf+0xa74>
     998:	00030413          	mv	s0,t1
d:\PDS\SparrowRV-master\bsp\bsp_app\obj/../lib/driver/src/printf.c:813
            out(' ', buffer, idx++, maxlen);
     99c:	000c8613          	mv	a2,s9
     9a0:	00090693          	mv	a3,s2
     9a4:	001c8c93          	addi	s9,s9,1
     9a8:	00098593          	mv	a1,s3
     9ac:	02000513          	li	a0,32
     9b0:	000a00e7          	jalr	s4
d:\PDS\SparrowRV-master\bsp\bsp_app\obj/../lib/driver/src/printf.c:812
          while (l++ < width) {
     9b4:	fe8c94e3          	bne	s9,s0,99c <_vsnprintf+0x180>
     9b8:	00040313          	mv	t1,s0
d:\PDS\SparrowRV-master\bsp\bsp_app\obj/../lib/driver/src/printf.c:821
        const char* p = va_arg(va, char*);
     9bc:	01c12d03          	lw	s10,28(sp)
d:\PDS\SparrowRV-master\bsp\bsp_app\obj/../lib/driver/src/printf.c:611
  while (*format)
     9c0:	000c4503          	lbu	a0,0(s8)
     9c4:	ee051ee3          	bnez	a0,8c0 <_vsnprintf+0xa4>
d:\PDS\SparrowRV-master\bsp\bsp_app\obj/../lib/driver/src/printf.c:880

  // termination
  out((char)0, buffer, idx < maxlen ? idx : maxlen - 1U, maxlen);

  // return written chars without terminating \0
  return (int)idx;
     9c8:	00030413          	mv	s0,t1
     9cc:	00030493          	mv	s1,t1
d:\PDS\SparrowRV-master\bsp\bsp_app\obj/../lib/driver/src/printf.c:877
  out((char)0, buffer, idx < maxlen ? idx : maxlen - 1U, maxlen);
     9d0:	01246463          	bltu	s0,s2,9d8 <_vsnprintf+0x1bc>
d:\PDS\SparrowRV-master\bsp\bsp_app\obj/../lib/driver/src/printf.c:877 (discriminator 1)
     9d4:	fff90413          	addi	s0,s2,-1
d:\PDS\SparrowRV-master\bsp\bsp_app\obj/../lib/driver/src/printf.c:877 (discriminator 4)
     9d8:	00090693          	mv	a3,s2
     9dc:	00040613          	mv	a2,s0
     9e0:	00098593          	mv	a1,s3
     9e4:	00000513          	li	a0,0
     9e8:	000a00e7          	jalr	s4
d:\PDS\SparrowRV-master\bsp\bsp_app\obj/../lib/driver/src/printf.c:881 (discriminator 4)
}
     9ec:	09c12083          	lw	ra,156(sp)
     9f0:	09812403          	lw	s0,152(sp)
     9f4:	09012903          	lw	s2,144(sp)
     9f8:	08c12983          	lw	s3,140(sp)
     9fc:	08812a03          	lw	s4,136(sp)
     a00:	08412a83          	lw	s5,132(sp)
     a04:	08012b03          	lw	s6,128(sp)
     a08:	07c12b83          	lw	s7,124(sp)
     a0c:	07812c03          	lw	s8,120(sp)
     a10:	07412c83          	lw	s9,116(sp)
     a14:	07012d03          	lw	s10,112(sp)
     a18:	06c12d83          	lw	s11,108(sp)
     a1c:	00048513          	mv	a0,s1
     a20:	09412483          	lw	s1,148(sp)
     a24:	0a010113          	addi	sp,sp,160
     a28:	00008067          	ret
d:\PDS\SparrowRV-master\bsp\bsp_app\obj/../lib/driver/src/printf.c:629
        case '0': flags |= FLAGS_ZEROPAD; format++; n = 1U; break;
     a2c:	0016e693          	ori	a3,a3,1
d:\PDS\SparrowRV-master\bsp\bsp_app\obj/../lib/driver/src/printf.c:652
      format++;
     a30:	00070c13          	mv	s8,a4
     a34:	e99ff06f          	j	8cc <_vsnprintf+0xb0>
d:\PDS\SparrowRV-master\bsp\bsp_app\obj/../lib/driver/src/printf.c:630
        case '-': flags |= FLAGS_LEFT;    format++; n = 1U; break;
     a38:	0026e693          	ori	a3,a3,2
d:\PDS\SparrowRV-master\bsp\bsp_app\obj/../lib/driver/src/printf.c:652
      format++;
     a3c:	00070c13          	mv	s8,a4
     a40:	e8dff06f          	j	8cc <_vsnprintf+0xb0>
d:\PDS\SparrowRV-master\bsp\bsp_app\obj/../lib/driver/src/printf.c:631
        case '+': flags |= FLAGS_PLUS;    format++; n = 1U; break;
     a44:	0046e693          	ori	a3,a3,4
d:\PDS\SparrowRV-master\bsp\bsp_app\obj/../lib/driver/src/printf.c:652
      format++;
     a48:	00070c13          	mv	s8,a4
     a4c:	e81ff06f          	j	8cc <_vsnprintf+0xb0>
d:\PDS\SparrowRV-master\bsp\bsp_app\obj/../lib/driver/src/printf.c:633
        case '#': flags |= FLAGS_HASH;    format++; n = 1U; break;
     a50:	0106e693          	ori	a3,a3,16
d:\PDS\SparrowRV-master\bsp\bsp_app\obj/../lib/driver/src/printf.c:652
      format++;
     a54:	00070c13          	mv	s8,a4
     a58:	e75ff06f          	j	8cc <_vsnprintf+0xb0>
d:\PDS\SparrowRV-master\bsp\bsp_app\obj/../lib/driver/src/printf.c:632
        case ' ': flags |= FLAGS_SPACE;   format++; n = 1U; break;
     a5c:	0086e693          	ori	a3,a3,8
d:\PDS\SparrowRV-master\bsp\bsp_app\obj/../lib/driver/src/printf.c:652
      format++;
     a60:	00070c13          	mv	s8,a4
     a64:	e69ff06f          	j	8cc <_vsnprintf+0xb0>
d:\PDS\SparrowRV-master\bsp\bsp_app\obj/../lib/driver/src/printf.c:707
    switch (*format) {
     a68:	07800793          	li	a5,120
d:\PDS\SparrowRV-master\bsp\bsp_app\obj/../lib/driver/src/printf.c:778
        format++;
     a6c:	00070c13          	mv	s8,a4
d:\PDS\SparrowRV-master\bsp\bsp_app\obj/../lib/driver/src/printf.c:707
    switch (*format) {
     a70:	e2a7e8e3          	bltu	a5,a0,8a0 <_vsnprintf+0x84>
     a74:	f9c50793          	addi	a5,a0,-100
     a78:	00100c93          	li	s9,1
     a7c:	00fc9cb3          	sll	s9,s9,a5
     a80:	01812783          	lw	a5,24(sp)
     a84:	00fcfcb3          	and	s9,s9,a5
     a88:	000c9ee3          	bnez	s9,12a4 <_vsnprintf+0xa88>
     a8c:	07300793          	li	a5,115
     a90:	22f50663          	beq	a0,a5,cbc <_vsnprintf+0x4a0>
     a94:	07000793          	li	a5,112
     a98:	e0f514e3          	bne	a0,a5,8a0 <_vsnprintf+0x84>
d:\PDS\SparrowRV-master\bsp\bsp_app\obj/../lib/driver/src/printf.c:856
          idx = _ntoa_long(out, buffer, idx, maxlen, (unsigned long)((uintptr_t)va_arg(va, void*)), false, 16U, precision, width, flags);
     a9c:	000d2783          	lw	a5,0(s10)
d:\PDS\SparrowRV-master\bsp\bsp_app\obj/../lib/driver/src/printf.c:848
        flags |= FLAGS_ZEROPAD | FLAGS_UPPERCASE;
     aa0:	0216e593          	ori	a1,a3,33
d:\PDS\SparrowRV-master\bsp\bsp_app\obj/../lib/driver/src/printf.c:856
          idx = _ntoa_long(out, buffer, idx, maxlen, (unsigned long)((uintptr_t)va_arg(va, void*)), false, 16U, precision, width, flags);
     aa4:	004d0d13          	addi	s10,s10,4
_ntoa_long():
d:\PDS\SparrowRV-master\bsp\bsp_app\obj/../lib/driver/src/printf.c:311
  if (!value) {
     aa8:	38078863          	beqz	a5,e38 <_vsnprintf+0x61c>
     aac:	04010713          	addi	a4,sp,64
d:\PDS\SparrowRV-master\bsp\bsp_app\obj/../lib/driver/src/printf.c:319
      buf[len++] = digit < 10 ? '0' + digit : (flags & FLAGS_UPPERCASE ? 'A' : 'a') + digit - 10;
     ab0:	00900813          	li	a6,9
d:\PDS\SparrowRV-master\bsp\bsp_app\obj/../lib/driver/src/printf.c:321
    } while (value && (len < PRINTF_NTOA_BUFFER_SIZE));
     ab4:	00f00513          	li	a0,15
     ab8:	02000893          	li	a7,32
     abc:	00c0006f          	j	ac8 <_vsnprintf+0x2ac>
     ac0:	031c8663          	beq	s9,a7,aec <_vsnprintf+0x2d0>
d:\PDS\SparrowRV-master\bsp\bsp_app\obj/../lib/driver/src/printf.c:320
      value /= base;
     ac4:	00068793          	mv	a5,a3
d:\PDS\SparrowRV-master\bsp\bsp_app\obj/../lib/driver/src/printf.c:318
      const char digit = (char)(value % base);
     ac8:	00f7fe93          	andi	t4,a5,15
d:\PDS\SparrowRV-master\bsp\bsp_app\obj/../lib/driver/src/printf.c:319
      buf[len++] = digit < 10 ? '0' + digit : (flags & FLAGS_UPPERCASE ? 'A' : 'a') + digit - 10;
     acc:	037e8613          	addi	a2,t4,55
     ad0:	01d86463          	bltu	a6,t4,ad8 <_vsnprintf+0x2bc>
     ad4:	030e8613          	addi	a2,t4,48
     ad8:	001c8c93          	addi	s9,s9,1
     adc:	019706b3          	add	a3,a4,s9
     ae0:	fec68fa3          	sb	a2,-1(a3)
d:\PDS\SparrowRV-master\bsp\bsp_app\obj/../lib/driver/src/printf.c:320
      value /= base;
     ae4:	0047d693          	srli	a3,a5,0x4
d:\PDS\SparrowRV-master\bsp\bsp_app\obj/../lib/driver/src/printf.c:321
    } while (value && (len < PRINTF_NTOA_BUFFER_SIZE));
     ae8:	fcf56ce3          	bltu	a0,a5,ac0 <_vsnprintf+0x2a4>
d:\PDS\SparrowRV-master\bsp\bsp_app\obj/../lib/driver/src/printf.c:324
  return _ntoa_format(out, buffer, idx, maxlen, buf, len, negative, (unsigned int)base, prec, width, flags);
     aec:	00800793          	li	a5,8
     af0:	00f12223          	sw	a5,4(sp)
     af4:	00030613          	mv	a2,t1
     af8:	00b12423          	sw	a1,8(sp)
     afc:	01c12023          	sw	t3,0(sp)
     b00:	01000893          	li	a7,16
     b04:	00000813          	li	a6,0
     b08:	000c8793          	mv	a5,s9
     b0c:	00090693          	mv	a3,s2
     b10:	00098593          	mv	a1,s3
     b14:	000a0513          	mv	a0,s4
     b18:	80dff0ef          	jal	ra,324 <_ntoa_format>
     b1c:	00050313          	mv	t1,a0
_vsnprintf():
d:\PDS\SparrowRV-master\bsp\bsp_app\obj/../lib/driver/src/printf.c:861
        break;
     b20:	d99ff06f          	j	8b8 <_vsnprintf+0x9c>
d:\PDS\SparrowRV-master\bsp\bsp_app\obj/../lib/driver/src/printf.c:707
    switch (*format) {
     b24:	03651263          	bne	a0,s6,b48 <_vsnprintf+0x32c>
d:\PDS\SparrowRV-master\bsp\bsp_app\obj/../lib/driver/src/printf.c:865
        out('%', buffer, idx++, maxlen);
     b28:	00030613          	mv	a2,t1
     b2c:	00090693          	mv	a3,s2
     b30:	00098593          	mv	a1,s3
     b34:	02500513          	li	a0,37
     b38:	00130413          	addi	s0,t1,1
     b3c:	000a00e7          	jalr	s4
     b40:	00040313          	mv	t1,s0
d:\PDS\SparrowRV-master\bsp\bsp_app\obj/../lib/driver/src/printf.c:867
        break;
     b44:	d75ff06f          	j	8b8 <_vsnprintf+0x9c>
d:\PDS\SparrowRV-master\bsp\bsp_app\obj/../lib/driver/src/printf.c:707
    switch (*format) {
     b48:	05800793          	li	a5,88
     b4c:	d4f51ae3          	bne	a0,a5,8a0 <_vsnprintf+0x84>
d:\PDS\SparrowRV-master\bsp\bsp_app\obj/../lib/driver/src/printf.c:741
        if (flags & FLAGS_PRECISION) {
     b50:	4006f513          	andi	a0,a3,1024
     b54:	4a050463          	beqz	a0,ffc <_vsnprintf+0x7e0>
d:\PDS\SparrowRV-master\bsp\bsp_app\obj/../lib/driver/src/printf.c:742
          flags &= ~FLAGS_ZEROPAD;
     b58:	ff26f693          	andi	a3,a3,-14
     b5c:	0206e693          	ori	a3,a3,32
     b60:	01000f13          	li	t5,16
     b64:	00000613          	li	a2,0
     b68:	01000893          	li	a7,16
d:\PDS\SparrowRV-master\bsp\bsp_app\obj/../lib/driver/src/printf.c:765
          if (flags & FLAGS_LONG_LONG) {
     b6c:	2006f593          	andi	a1,a3,512
     b70:	50059663          	bnez	a1,107c <_vsnprintf+0x860>
d:\PDS\SparrowRV-master\bsp\bsp_app\obj/../lib/driver/src/printf.c:770
          else if (flags & FLAGS_LONG) {
     b74:	1006f793          	andi	a5,a3,256
d:\PDS\SparrowRV-master\bsp\bsp_app\obj/../lib/driver/src/printf.c:755
            const long value = va_arg(va, long);
     b78:	004d0c93          	addi	s9,s10,4
d:\PDS\SparrowRV-master\bsp\bsp_app\obj/../lib/driver/src/printf.c:770
          else if (flags & FLAGS_LONG) {
     b7c:	60079a63          	bnez	a5,1190 <_vsnprintf+0x974>
d:\PDS\SparrowRV-master\bsp\bsp_app\obj/../lib/driver/src/printf.c:774
            const unsigned int value = (flags & FLAGS_CHAR) ? (unsigned char)va_arg(va, unsigned int) : (flags & FLAGS_SHORT) ? (unsigned short int)va_arg(va, unsigned int) : va_arg(va, unsigned int);
     b80:	0406f713          	andi	a4,a3,64
     b84:	6a070063          	beqz	a4,1224 <_vsnprintf+0xa08>
     b88:	000d4583          	lbu	a1,0(s10)
_ntoa_long():
d:\PDS\SparrowRV-master\bsp\bsp_app\obj/../lib/driver/src/printf.c:311 (discriminator 8)
  if (!value) {
     b8c:	48059663          	bnez	a1,1018 <_vsnprintf+0x7fc>
d:\PDS\SparrowRV-master\bsp\bsp_app\obj/../lib/driver/src/printf.c:312
    flags &= ~FLAGS_HASH;
     b90:	fef6f693          	andi	a3,a3,-17
d:\PDS\SparrowRV-master\bsp\bsp_app\obj/../lib/driver/src/printf.c:316
  if (!(flags & FLAGS_PRECISION) || value) {
     b94:	48050263          	beqz	a0,1018 <_vsnprintf+0x7fc>
d:\PDS\SparrowRV-master\bsp\bsp_app\obj/../lib/driver/src/printf.c:308
  size_t len = 0U;
     b98:	00000793          	li	a5,0
     b9c:	04010713          	addi	a4,sp,64
d:\PDS\SparrowRV-master\bsp\bsp_app\obj/../lib/driver/src/printf.c:324
  return _ntoa_format(out, buffer, idx, maxlen, buf, len, negative, (unsigned int)base, prec, width, flags);
     ba0:	00030613          	mv	a2,t1
     ba4:	00d12423          	sw	a3,8(sp)
     ba8:	00812223          	sw	s0,4(sp)
     bac:	01c12023          	sw	t3,0(sp)
     bb0:	00000813          	li	a6,0
     bb4:	00090693          	mv	a3,s2
     bb8:	00098593          	mv	a1,s3
     bbc:	000a0513          	mv	a0,s4
     bc0:	f64ff0ef          	jal	ra,324 <_ntoa_format>
     bc4:	00050313          	mv	t1,a0
     bc8:	000c8d13          	mv	s10,s9
_vsnprintf():
d:\PDS\SparrowRV-master\bsp\bsp_app\obj/../lib/driver/src/printf.c:779
        break;
     bcc:	cedff06f          	j	8b8 <_vsnprintf+0x9c>
_atoi():
d:\PDS\SparrowRV-master\bsp\bsp_app\obj/../lib/driver/src/printf.c:214
  unsigned int i = 0U;
     bd0:	00000413          	li	s0,0
     bd4:	00040613          	mv	a2,s0
     bd8:	0080006f          	j	be0 <_vsnprintf+0x3c4>
     bdc:	00170713          	addi	a4,a4,1
d:\PDS\SparrowRV-master\bsp\bsp_app\obj/../lib/driver/src/printf.c:216
    i = i * 10U + (unsigned int)(*((*str)++) - '0');
     be0:	00261413          	slli	s0,a2,0x2
     be4:	00c40433          	add	s0,s0,a2
     be8:	00141413          	slli	s0,s0,0x1
     bec:	00a40433          	add	s0,s0,a0
d:\PDS\SparrowRV-master\bsp\bsp_app\obj/../lib/driver/src/printf.c:215
  while (_is_digit(**str)) {
     bf0:	00074503          	lbu	a0,0(a4)
d:\PDS\SparrowRV-master\bsp\bsp_app\obj/../lib/driver/src/printf.c:216
    i = i * 10U + (unsigned int)(*((*str)++) - '0');
     bf4:	00070c13          	mv	s8,a4
     bf8:	fd040613          	addi	a2,s0,-48
_is_digit():
d:\PDS\SparrowRV-master\bsp\bsp_app\obj/../lib/driver/src/printf.c:207
  return (ch >= '0') && (ch <= '9');
     bfc:	fd050793          	addi	a5,a0,-48
_atoi():
d:\PDS\SparrowRV-master\bsp\bsp_app\obj/../lib/driver/src/printf.c:215
  while (_is_digit(**str)) {
     c00:	0ff7f793          	zext.b	a5,a5
     c04:	fcfbfce3          	bgeu	s7,a5,bdc <_vsnprintf+0x3c0>
_vsnprintf():
d:\PDS\SparrowRV-master\bsp\bsp_app\obj/../lib/driver/src/printf.c:657
    if (*format == '.') {
     c08:	02e00793          	li	a5,46
     c0c:	00060413          	mv	s0,a2
     c10:	00170713          	addi	a4,a4,1
d:\PDS\SparrowRV-master\bsp\bsp_app\obj/../lib/driver/src/printf.c:656
    precision = 0U;
     c14:	00000e13          	li	t3,0
d:\PDS\SparrowRV-master\bsp\bsp_app\obj/../lib/driver/src/printf.c:657
    if (*format == '.') {
     c18:	cef51ee3          	bne	a0,a5,914 <_vsnprintf+0xf8>
d:\PDS\SparrowRV-master\bsp\bsp_app\obj/../lib/driver/src/printf.c:660
      if (_is_digit(*format)) {
     c1c:	001c4503          	lbu	a0,1(s8)
     c20:	00900593          	li	a1,9
d:\PDS\SparrowRV-master\bsp\bsp_app\obj/../lib/driver/src/printf.c:659
      format++;
     c24:	00070613          	mv	a2,a4
_is_digit():
d:\PDS\SparrowRV-master\bsp\bsp_app\obj/../lib/driver/src/printf.c:207
  return (ch >= '0') && (ch <= '9');
     c28:	fd050793          	addi	a5,a0,-48
_vsnprintf():
d:\PDS\SparrowRV-master\bsp\bsp_app\obj/../lib/driver/src/printf.c:660
      if (_is_digit(*format)) {
     c2c:	0ff7f793          	zext.b	a5,a5
d:\PDS\SparrowRV-master\bsp\bsp_app\obj/../lib/driver/src/printf.c:658
      flags |= FLAGS_PRECISION;
     c30:	4006e693          	ori	a3,a3,1024
d:\PDS\SparrowRV-master\bsp\bsp_app\obj/../lib/driver/src/printf.c:660
      if (_is_digit(*format)) {
     c34:	18f5fe63          	bgeu	a1,a5,dd0 <_vsnprintf+0x5b4>
d:\PDS\SparrowRV-master\bsp\bsp_app\obj/../lib/driver/src/printf.c:663
      else if (*format == '*') {
     c38:	02a00793          	li	a5,42
     c3c:	1cf50663          	beq	a0,a5,e08 <_vsnprintf+0x5ec>
d:\PDS\SparrowRV-master\bsp\bsp_app\obj/../lib/driver/src/printf.c:659
      format++;
     c40:	00070c13          	mv	s8,a4
d:\PDS\SparrowRV-master\bsp\bsp_app\obj/../lib/driver/src/printf.c:671
    switch (*format) {
     c44:	06c00793          	li	a5,108
     c48:	00170713          	addi	a4,a4,1
d:\PDS\SparrowRV-master\bsp\bsp_app\obj/../lib/driver/src/printf.c:674
        format++;
     c4c:	00070613          	mv	a2,a4
d:\PDS\SparrowRV-master\bsp\bsp_app\obj/../lib/driver/src/printf.c:671
    switch (*format) {
     c50:	ccf518e3          	bne	a0,a5,920 <_vsnprintf+0x104>
d:\PDS\SparrowRV-master\bsp\bsp_app\obj/../lib/driver/src/printf.c:675
        if (*format == 'l') {
     c54:	001c4503          	lbu	a0,1(s8)
     c58:	1ef50c63          	beq	a0,a5,e50 <_vsnprintf+0x634>
d:\PDS\SparrowRV-master\bsp\bsp_app\obj/../lib/driver/src/printf.c:699
        flags |= (sizeof(size_t) == sizeof(long) ? FLAGS_LONG : FLAGS_LONG_LONG);
     c5c:	1006e693          	ori	a3,a3,256
d:\PDS\SparrowRV-master\bsp\bsp_app\obj/../lib/driver/src/printf.c:701
        break;
     c60:	cddff06f          	j	93c <_vsnprintf+0x120>
d:\PDS\SparrowRV-master\bsp\bsp_app\obj/../lib/driver/src/printf.c:671
    switch (*format) {
     c64:	07a00793          	li	a5,122
     c68:	e0f510e3          	bne	a0,a5,a68 <_vsnprintf+0x24c>
d:\PDS\SparrowRV-master\bsp\bsp_app\obj/../lib/driver/src/printf.c:675
        if (*format == 'l') {
     c6c:	001c4503          	lbu	a0,1(s8)
d:\PDS\SparrowRV-master\bsp\bsp_app\obj/../lib/driver/src/printf.c:699
        flags |= (sizeof(size_t) == sizeof(long) ? FLAGS_LONG : FLAGS_LONG_LONG);
     c70:	1006e693          	ori	a3,a3,256
d:\PDS\SparrowRV-master\bsp\bsp_app\obj/../lib/driver/src/printf.c:701
        break;
     c74:	cc9ff06f          	j	93c <_vsnprintf+0x120>
d:\PDS\SparrowRV-master\bsp\bsp_app\obj/../lib/driver/src/printf.c:644
      const int w = va_arg(va, int);
     c78:	000d2403          	lw	s0,0(s10)
     c7c:	004d0d13          	addi	s10,s10,4
d:\PDS\SparrowRV-master\bsp\bsp_app\obj/../lib/driver/src/printf.c:645
      if (w < 0) {
     c80:	00044a63          	bltz	s0,c94 <_vsnprintf+0x478>
d:\PDS\SparrowRV-master\bsp\bsp_app\obj/../lib/driver/src/printf.c:657
    if (*format == '.') {
     c84:	001c4503          	lbu	a0,1(s8)
d:\PDS\SparrowRV-master\bsp\bsp_app\obj/../lib/driver/src/printf.c:652
      format++;
     c88:	00070c13          	mv	s8,a4
     c8c:	00170713          	addi	a4,a4,1
     c90:	c79ff06f          	j	908 <_vsnprintf+0xec>
d:\PDS\SparrowRV-master\bsp\bsp_app\obj/../lib/driver/src/printf.c:657
    if (*format == '.') {
     c94:	001c4503          	lbu	a0,1(s8)
d:\PDS\SparrowRV-master\bsp\bsp_app\obj/../lib/driver/src/printf.c:646
        flags |= FLAGS_LEFT;    // reverse padding
     c98:	0026e693          	ori	a3,a3,2
d:\PDS\SparrowRV-master\bsp\bsp_app\obj/../lib/driver/src/printf.c:652
      format++;
     c9c:	00070c13          	mv	s8,a4
d:\PDS\SparrowRV-master\bsp\bsp_app\obj/../lib/driver/src/printf.c:647
        width = (unsigned int)-w;
     ca0:	40800433          	neg	s0,s0
d:\PDS\SparrowRV-master\bsp\bsp_app\obj/../lib/driver/src/printf.c:652
      format++;
     ca4:	00170713          	addi	a4,a4,1
     ca8:	c61ff06f          	j	908 <_vsnprintf+0xec>
d:\PDS\SparrowRV-master\bsp\bsp_app\obj/../lib/driver/src/printf.c:683
        if (*format == 'h') {
     cac:	001c4503          	lbu	a0,1(s8)
     cb0:	28f50663          	beq	a0,a5,f3c <_vsnprintf+0x720>
d:\PDS\SparrowRV-master\bsp\bsp_app\obj/../lib/driver/src/printf.c:681
        flags |= FLAGS_SHORT;
     cb4:	0806e693          	ori	a3,a3,128
     cb8:	c85ff06f          	j	93c <_vsnprintf+0x120>
d:\PDS\SparrowRV-master\bsp\bsp_app\obj/../lib/driver/src/printf.c:821
        const char* p = va_arg(va, char*);
     cbc:	000d2703          	lw	a4,0(s10)
     cc0:	004d0793          	addi	a5,s10,4
     cc4:	00f12e23          	sw	a5,28(sp)
_strnlen_s():
d:\PDS\SparrowRV-master\bsp\bsp_app\obj/../lib/driver/src/printf.c:198
  for (s = str; *s && maxsize--; ++s);
     cc8:	00074583          	lbu	a1,0(a4)
     ccc:	00058513          	mv	a0,a1
_vsnprintf():
d:\PDS\SparrowRV-master\bsp\bsp_app\obj/../lib/driver/src/printf.c:822
        unsigned int l = _strnlen_s(p, precision ? precision : (size_t)-1);
     cd0:	140e1e63          	bnez	t3,e2c <_vsnprintf+0x610>
_strnlen_s():
d:\PDS\SparrowRV-master\bsp\bsp_app\obj/../lib/driver/src/printf.c:198
  for (s = str; *s && maxsize--; ++s);
     cd4:	ffe00613          	li	a2,-2
     cd8:	02058463          	beqz	a1,d00 <_vsnprintf+0x4e4>
     cdc:	00160613          	addi	a2,a2,1
     ce0:	00c70633          	add	a2,a4,a2
     ce4:	00070c93          	mv	s9,a4
     ce8:	0080006f          	j	cf0 <_vsnprintf+0x4d4>
     cec:	00cc8863          	beq	s9,a2,cfc <_vsnprintf+0x4e0>
     cf0:	001cc783          	lbu	a5,1(s9)
     cf4:	001c8c93          	addi	s9,s9,1
     cf8:	fe079ae3          	bnez	a5,cec <_vsnprintf+0x4d0>
d:\PDS\SparrowRV-master\bsp\bsp_app\obj/../lib/driver/src/printf.c:199
  return (unsigned int)(s - str);
     cfc:	40ec8cb3          	sub	s9,s9,a4
_vsnprintf():
d:\PDS\SparrowRV-master\bsp\bsp_app\obj/../lib/driver/src/printf.c:824
        if (flags & FLAGS_PRECISION) {
     d00:	4006fd93          	andi	s11,a3,1024
     d04:	000d8663          	beqz	s11,d10 <_vsnprintf+0x4f4>
d:\PDS\SparrowRV-master\bsp\bsp_app\obj/../lib/driver/src/printf.c:825
          l = (l < precision ? l : precision);
     d08:	019e7463          	bgeu	t3,s9,d10 <_vsnprintf+0x4f4>
     d0c:	000e0c93          	mv	s9,t3
d:\PDS\SparrowRV-master\bsp\bsp_app\obj/../lib/driver/src/printf.c:827
        if (!(flags & FLAGS_LEFT)) {
     d10:	0026f693          	andi	a3,a3,2
     d14:	24068863          	beqz	a3,f64 <_vsnprintf+0x748>
d:\PDS\SparrowRV-master\bsp\bsp_app\obj/../lib/driver/src/printf.c:833
        while ((*p != 0) && (!(flags & FLAGS_PRECISION) || precision--)) {
     d18:	06058263          	beqz	a1,d7c <_vsnprintf+0x560>
     d1c:	1c0d8063          	beqz	s11,edc <_vsnprintf+0x6c0>
     d20:	03912223          	sw	s9,36(sp)
     d24:	006e0d33          	add	s10,t3,t1
d:\PDS\SparrowRV-master\bsp\bsp_app\obj/../lib/driver/src/printf.c:829
            out(' ', buffer, idx++, maxlen);
     d28:	00030613          	mv	a2,t1
     d2c:	02d12023          	sw	a3,32(sp)
     d30:	02812423          	sw	s0,40(sp)
     d34:	00070c93          	mv	s9,a4
     d38:	00030d93          	mv	s11,t1
d:\PDS\SparrowRV-master\bsp\bsp_app\obj/../lib/driver/src/printf.c:833
        while ((*p != 0) && (!(flags & FLAGS_PRECISION) || precision--)) {
     d3c:	02cd0663          	beq	s10,a2,d68 <_vsnprintf+0x54c>
d:\PDS\SparrowRV-master\bsp\bsp_app\obj/../lib/driver/src/printf.c:834
          out(*(p++), buffer, idx++, maxlen);
     d40:	00090693          	mv	a3,s2
     d44:	00098593          	mv	a1,s3
     d48:	00160413          	addi	s0,a2,1
     d4c:	000a00e7          	jalr	s4
d:\PDS\SparrowRV-master\bsp\bsp_app\obj/../lib/driver/src/printf.c:833
        while ((*p != 0) && (!(flags & FLAGS_PRECISION) || precision--)) {
     d50:	41b407b3          	sub	a5,s0,s11
     d54:	00fc87b3          	add	a5,s9,a5
     d58:	0007c503          	lbu	a0,0(a5)
     d5c:	1e050863          	beqz	a0,f4c <_vsnprintf+0x730>
d:\PDS\SparrowRV-master\bsp\bsp_app\obj/../lib/driver/src/printf.c:834
          out(*(p++), buffer, idx++, maxlen);
     d60:	00040613          	mv	a2,s0
d:\PDS\SparrowRV-master\bsp\bsp_app\obj/../lib/driver/src/printf.c:833
        while ((*p != 0) && (!(flags & FLAGS_PRECISION) || precision--)) {
     d64:	fccd1ee3          	bne	s10,a2,d40 <_vsnprintf+0x524>
     d68:	02012683          	lw	a3,32(sp)
     d6c:	02412c83          	lw	s9,36(sp)
     d70:	02812403          	lw	s0,40(sp)
     d74:	000d0313          	mv	t1,s10
d:\PDS\SparrowRV-master\bsp\bsp_app\obj/../lib/driver/src/printf.c:837
        if (flags & FLAGS_LEFT) {
     d78:	c40682e3          	beqz	a3,9bc <_vsnprintf+0x1a0>
     d7c:	00030d93          	mv	s11,t1
d:\PDS\SparrowRV-master\bsp\bsp_app\obj/../lib/driver/src/printf.c:838
          while (l++ < width) {
     d80:	c28cfee3          	bgeu	s9,s0,9bc <_vsnprintf+0x1a0>
     d84:	00640433          	add	s0,s0,t1
     d88:	41940333          	sub	t1,s0,s9
     d8c:	00030413          	mv	s0,t1
d:\PDS\SparrowRV-master\bsp\bsp_app\obj/../lib/driver/src/printf.c:839
            out(' ', buffer, idx++, maxlen);
     d90:	000d8613          	mv	a2,s11
     d94:	00090693          	mv	a3,s2
     d98:	001d8d93          	addi	s11,s11,1
     d9c:	00098593          	mv	a1,s3
     da0:	02000513          	li	a0,32
     da4:	000a00e7          	jalr	s4
d:\PDS\SparrowRV-master\bsp\bsp_app\obj/../lib/driver/src/printf.c:838
          while (l++ < width) {
     da8:	fe8d94e3          	bne	s11,s0,d90 <_vsnprintf+0x574>
     dac:	00040313          	mv	t1,s0
     db0:	c0dff06f          	j	9bc <_vsnprintf+0x1a0>
d:\PDS\SparrowRV-master\bsp\bsp_app\obj/../lib/driver/src/printf.c:611
  while (*format)
     db4:	000c4503          	lbu	a0,0(s8)
d:\PDS\SparrowRV-master\bsp\bsp_app\obj/../lib/driver/src/printf.c:608
    out = _out_null;
     db8:	32000a13          	li	s4,800
d:\PDS\SparrowRV-master\bsp\bsp_app\obj/../lib/driver/src/printf.c:611
  while (*format)
     dbc:	00000413          	li	s0,0
     dc0:	aa051ce3          	bnez	a0,878 <_vsnprintf+0x5c>
     dc4:	00000493          	li	s1,0
d:\PDS\SparrowRV-master\bsp\bsp_app\obj/../lib/driver/src/printf.c:877
  out((char)0, buffer, idx < maxlen ? idx : maxlen - 1U, maxlen);
     dc8:	c12468e3          	bltu	s0,s2,9d8 <_vsnprintf+0x1bc>
     dcc:	c09ff06f          	j	9d4 <_vsnprintf+0x1b8>
_atoi():
d:\PDS\SparrowRV-master\bsp\bsp_app\obj/../lib/driver/src/printf.c:215
  while (_is_digit(**str)) {
     dd0:	00900713          	li	a4,9
d:\PDS\SparrowRV-master\bsp\bsp_app\obj/../lib/driver/src/printf.c:216
    i = i * 10U + (unsigned int)(*((*str)++) - '0');
     dd4:	002e1793          	slli	a5,t3,0x2
     dd8:	01c787b3          	add	a5,a5,t3
     ddc:	00160613          	addi	a2,a2,1
     de0:	00179793          	slli	a5,a5,0x1
     de4:	00a787b3          	add	a5,a5,a0
d:\PDS\SparrowRV-master\bsp\bsp_app\obj/../lib/driver/src/printf.c:215
  while (_is_digit(**str)) {
     de8:	00064503          	lbu	a0,0(a2)
d:\PDS\SparrowRV-master\bsp\bsp_app\obj/../lib/driver/src/printf.c:216
    i = i * 10U + (unsigned int)(*((*str)++) - '0');
     dec:	fd078e13          	addi	t3,a5,-48
_is_digit():
d:\PDS\SparrowRV-master\bsp\bsp_app\obj/../lib/driver/src/printf.c:207
  return (ch >= '0') && (ch <= '9');
     df0:	fd050793          	addi	a5,a0,-48
_atoi():
d:\PDS\SparrowRV-master\bsp\bsp_app\obj/../lib/driver/src/printf.c:215
  while (_is_digit(**str)) {
     df4:	0ff7f793          	zext.b	a5,a5
     df8:	fcf77ee3          	bgeu	a4,a5,dd4 <_vsnprintf+0x5b8>
d:\PDS\SparrowRV-master\bsp\bsp_app\obj/../lib/driver/src/printf.c:216
    i = i * 10U + (unsigned int)(*((*str)++) - '0');
     dfc:	00060c13          	mv	s8,a2
     e00:	00160713          	addi	a4,a2,1
     e04:	b11ff06f          	j	914 <_vsnprintf+0xf8>
_vsnprintf():
d:\PDS\SparrowRV-master\bsp\bsp_app\obj/../lib/driver/src/printf.c:665
        precision = prec > 0 ? (unsigned int)prec : 0U;
     e08:	000d2e03          	lw	t3,0(s10)
d:\PDS\SparrowRV-master\bsp\bsp_app\obj/../lib/driver/src/printf.c:671
    switch (*format) {
     e0c:	002c4503          	lbu	a0,2(s8)
d:\PDS\SparrowRV-master\bsp\bsp_app\obj/../lib/driver/src/printf.c:666
        format++;
     e10:	002c0c13          	addi	s8,s8,2
d:\PDS\SparrowRV-master\bsp\bsp_app\obj/../lib/driver/src/printf.c:665
        precision = prec > 0 ? (unsigned int)prec : 0U;
     e14:	fffe4793          	not	a5,t3
     e18:	41f7d793          	srai	a5,a5,0x1f
     e1c:	00fe7e33          	and	t3,t3,a5
d:\PDS\SparrowRV-master\bsp\bsp_app\obj/../lib/driver/src/printf.c:664
        const int prec = (int)va_arg(va, int);
     e20:	004d0d13          	addi	s10,s10,4
     e24:	001c0713          	addi	a4,s8,1
     e28:	aedff06f          	j	914 <_vsnprintf+0xf8>
_strnlen_s():
d:\PDS\SparrowRV-master\bsp\bsp_app\obj/../lib/driver/src/printf.c:198
  for (s = str; *s && maxsize--; ++s);
     e2c:	ec058ae3          	beqz	a1,d00 <_vsnprintf+0x4e4>
     e30:	fffe0613          	addi	a2,t3,-1
     e34:	ea9ff06f          	j	cdc <_vsnprintf+0x4c0>
_ntoa_long():
d:\PDS\SparrowRV-master\bsp\bsp_app\obj/../lib/driver/src/printf.c:312
    flags &= ~FLAGS_HASH;
     e38:	fef6f593          	andi	a1,a3,-17
     e3c:	4006f793          	andi	a5,a3,1024
     e40:	0215e593          	ori	a1,a1,33
d:\PDS\SparrowRV-master\bsp\bsp_app\obj/../lib/driver/src/printf.c:316
  if (!(flags & FLAGS_PRECISION) || value) {
     e44:	04010713          	addi	a4,sp,64
     e48:	ca0792e3          	bnez	a5,aec <_vsnprintf+0x2d0>
     e4c:	c61ff06f          	j	aac <_vsnprintf+0x290>
_vsnprintf():
d:\PDS\SparrowRV-master\bsp\bsp_app\obj/../lib/driver/src/printf.c:707
    switch (*format) {
     e50:	002c4503          	lbu	a0,2(s8)
d:\PDS\SparrowRV-master\bsp\bsp_app\obj/../lib/driver/src/printf.c:676
          flags |= FLAGS_LONG_LONG;
     e54:	3006e693          	ori	a3,a3,768
d:\PDS\SparrowRV-master\bsp\bsp_app\obj/../lib/driver/src/printf.c:677
          format++;
     e58:	002c0613          	addi	a2,s8,2
     e5c:	ae1ff06f          	j	93c <_vsnprintf+0x120>
d:\PDS\SparrowRV-master\bsp\bsp_app\obj/../lib/driver/src/printf.c:804
          while (l++ < width) {
     e60:	00100793          	li	a5,1
     e64:	4087fc63          	bgeu	a5,s0,127c <_vsnprintf+0xa60>
     e68:	fff30c93          	addi	s9,t1,-1
     e6c:	008c8cb3          	add	s9,s9,s0
     e70:	02812023          	sw	s0,32(sp)
     e74:	000d0d93          	mv	s11,s10
     e78:	00030413          	mv	s0,t1
     e7c:	000c0d13          	mv	s10,s8
     e80:	00030c13          	mv	s8,t1
d:\PDS\SparrowRV-master\bsp\bsp_app\obj/../lib/driver/src/printf.c:805
            out(' ', buffer, idx++, maxlen);
     e84:	00040613          	mv	a2,s0
     e88:	00090693          	mv	a3,s2
     e8c:	00140413          	addi	s0,s0,1
     e90:	00098593          	mv	a1,s3
     e94:	02000513          	li	a0,32
     e98:	000a00e7          	jalr	s4
d:\PDS\SparrowRV-master\bsp\bsp_app\obj/../lib/driver/src/printf.c:804
          while (l++ < width) {
     e9c:	ff9414e3          	bne	s0,s9,e84 <_vsnprintf+0x668>
d:\PDS\SparrowRV-master\bsp\bsp_app\obj/../lib/driver/src/printf.c:809
        out((char)va_arg(va, int), buffer, idx++, maxlen);
     ea0:	000c0313          	mv	t1,s8
     ea4:	000d0c13          	mv	s8,s10
     ea8:	000d8d13          	mv	s10,s11
     eac:	00040d93          	mv	s11,s0
     eb0:	02012403          	lw	s0,32(sp)
     eb4:	000d4503          	lbu	a0,0(s10)
     eb8:	00090693          	mv	a3,s2
     ebc:	00830333          	add	t1,t1,s0
     ec0:	02612023          	sw	t1,32(sp)
     ec4:	000d8613          	mv	a2,s11
     ec8:	00098593          	mv	a1,s3
     ecc:	000a00e7          	jalr	s4
d:\PDS\SparrowRV-master\bsp\bsp_app\obj/../lib/driver/src/printf.c:811
        if (flags & FLAGS_LEFT) {
     ed0:	02012303          	lw	t1,32(sp)
d:\PDS\SparrowRV-master\bsp\bsp_app\obj/../lib/driver/src/printf.c:821
        const char* p = va_arg(va, char*);
     ed4:	01c12d03          	lw	s10,28(sp)
     ed8:	ae9ff06f          	j	9c0 <_vsnprintf+0x1a4>
d:\PDS\SparrowRV-master\bsp\bsp_app\obj/../lib/driver/src/printf.c:834
          out(*(p++), buffer, idx++, maxlen);
     edc:	000c0793          	mv	a5,s8
     ee0:	02812223          	sw	s0,36(sp)
     ee4:	02d12023          	sw	a3,32(sp)
     ee8:	00070d13          	mv	s10,a4
     eec:	00030413          	mv	s0,t1
     ef0:	00030c13          	mv	s8,t1
     ef4:	00078d93          	mv	s11,a5
d:\PDS\SparrowRV-master\bsp\bsp_app\obj/../lib/driver/src/printf.c:834 (discriminator 1)
     ef8:	000c0613          	mv	a2,s8
     efc:	00090693          	mv	a3,s2
     f00:	00098593          	mv	a1,s3
     f04:	000a00e7          	jalr	s4
     f08:	001c0c13          	addi	s8,s8,1
d:\PDS\SparrowRV-master\bsp\bsp_app\obj/../lib/driver/src/printf.c:833 (discriminator 1)
        while ((*p != 0) && (!(flags & FLAGS_PRECISION) || precision--)) {
     f0c:	408c0733          	sub	a4,s8,s0
     f10:	00ed0733          	add	a4,s10,a4
     f14:	00074503          	lbu	a0,0(a4)
     f18:	fe0510e3          	bnez	a0,ef8 <_vsnprintf+0x6dc>
     f1c:	02012683          	lw	a3,32(sp)
     f20:	02412403          	lw	s0,36(sp)
     f24:	000d8793          	mv	a5,s11
     f28:	000c0d93          	mv	s11,s8
d:\PDS\SparrowRV-master\bsp\bsp_app\obj/../lib/driver/src/printf.c:834
          out(*(p++), buffer, idx++, maxlen);
     f2c:	000d8313          	mv	t1,s11
     f30:	00078c13          	mv	s8,a5
d:\PDS\SparrowRV-master\bsp\bsp_app\obj/../lib/driver/src/printf.c:837
        if (flags & FLAGS_LEFT) {
     f34:	a80684e3          	beqz	a3,9bc <_vsnprintf+0x1a0>
     f38:	e45ff06f          	j	d7c <_vsnprintf+0x560>
d:\PDS\SparrowRV-master\bsp\bsp_app\obj/../lib/driver/src/printf.c:707
    switch (*format) {
     f3c:	002c4503          	lbu	a0,2(s8)
d:\PDS\SparrowRV-master\bsp\bsp_app\obj/../lib/driver/src/printf.c:684
          flags |= FLAGS_CHAR;
     f40:	0c06e693          	ori	a3,a3,192
d:\PDS\SparrowRV-master\bsp\bsp_app\obj/../lib/driver/src/printf.c:685
          format++;
     f44:	002c0613          	addi	a2,s8,2
     f48:	9f5ff06f          	j	93c <_vsnprintf+0x120>
     f4c:	00040d93          	mv	s11,s0
     f50:	02012683          	lw	a3,32(sp)
     f54:	02412c83          	lw	s9,36(sp)
     f58:	02812403          	lw	s0,40(sp)
d:\PDS\SparrowRV-master\bsp\bsp_app\obj/../lib/driver/src/printf.c:834
          out(*(p++), buffer, idx++, maxlen);
     f5c:	000d8313          	mv	t1,s11
     f60:	fd5ff06f          	j	f34 <_vsnprintf+0x718>
d:\PDS\SparrowRV-master\bsp\bsp_app\obj/../lib/driver/src/printf.c:828
          while (l++ < width) {
     f64:	308cf863          	bgeu	s9,s0,1274 <_vsnprintf+0xa58>
     f68:	006407b3          	add	a5,s0,t1
     f6c:	02812223          	sw	s0,36(sp)
     f70:	41978cb3          	sub	s9,a5,s9
     f74:	00068d13          	mv	s10,a3
     f78:	02e12023          	sw	a4,32(sp)
     f7c:	03c12423          	sw	t3,40(sp)
     f80:	00030413          	mv	s0,t1
d:\PDS\SparrowRV-master\bsp\bsp_app\obj/../lib/driver/src/printf.c:829
            out(' ', buffer, idx++, maxlen);
     f84:	00040613          	mv	a2,s0
     f88:	00090693          	mv	a3,s2
     f8c:	00140413          	addi	s0,s0,1
     f90:	00098593          	mv	a1,s3
     f94:	02000513          	li	a0,32
     f98:	000a00e7          	jalr	s4
d:\PDS\SparrowRV-master\bsp\bsp_app\obj/../lib/driver/src/printf.c:828
          while (l++ < width) {
     f9c:	ff9414e3          	bne	s0,s9,f84 <_vsnprintf+0x768>
     fa0:	02012703          	lw	a4,32(sp)
     fa4:	00040313          	mv	t1,s0
     fa8:	02412403          	lw	s0,36(sp)
     fac:	02812e03          	lw	t3,40(sp)
     fb0:	00074583          	lbu	a1,0(a4)
     fb4:	000d0693          	mv	a3,s10
     fb8:	00140c93          	addi	s9,s0,1
d:\PDS\SparrowRV-master\bsp\bsp_app\obj/../lib/driver/src/printf.c:833
        while ((*p != 0) && (!(flags & FLAGS_PRECISION) || precision--)) {
     fbc:	00058513          	mv	a0,a1
     fc0:	d4059ee3          	bnez	a1,d1c <_vsnprintf+0x500>
d:\PDS\SparrowRV-master\bsp\bsp_app\obj/../lib/driver/src/printf.c:821
        const char* p = va_arg(va, char*);
     fc4:	01c12d03          	lw	s10,28(sp)
     fc8:	9f9ff06f          	j	9c0 <_vsnprintf+0x1a4>
d:\PDS\SparrowRV-master\bsp\bsp_app\obj/../lib/driver/src/printf.c:741
        if (flags & FLAGS_PRECISION) {
     fcc:	4006f513          	andi	a0,a3,1024
     fd0:	00050c63          	beqz	a0,fe8 <_vsnprintf+0x7cc>
d:\PDS\SparrowRV-master\bsp\bsp_app\obj/../lib/driver/src/printf.c:742
          flags &= ~FLAGS_ZEROPAD;
     fd4:	ff26f693          	andi	a3,a3,-14
     fd8:	00200f13          	li	t5,2
     fdc:	00000613          	li	a2,0
     fe0:	00200893          	li	a7,2
     fe4:	b89ff06f          	j	b6c <_vsnprintf+0x350>
d:\PDS\SparrowRV-master\bsp\bsp_app\obj/../lib/driver/src/printf.c:737
          flags &= ~(FLAGS_PLUS | FLAGS_SPACE);
     fe8:	ff36f693          	andi	a3,a3,-13
     fec:	00200f13          	li	t5,2
     ff0:	00000613          	li	a2,0
     ff4:	00200893          	li	a7,2
     ff8:	b75ff06f          	j	b6c <_vsnprintf+0x350>
d:\PDS\SparrowRV-master\bsp\bsp_app\obj/../lib/driver/src/printf.c:732
          flags |= FLAGS_UPPERCASE;
     ffc:	0206e693          	ori	a3,a3,32
d:\PDS\SparrowRV-master\bsp\bsp_app\obj/../lib/driver/src/printf.c:737
          flags &= ~(FLAGS_PLUS | FLAGS_SPACE);
    1000:	ff36f693          	andi	a3,a3,-13
    1004:	00000513          	li	a0,0
    1008:	01000f13          	li	t5,16
    100c:	00000613          	li	a2,0
    1010:	01000893          	li	a7,16
    1014:	b59ff06f          	j	b6c <_vsnprintf+0x350>
_ntoa_long():
d:\PDS\SparrowRV-master\bsp\bsp_app\obj/../lib/driver/src/printf.c:319
      buf[len++] = digit < 10 ? '0' + digit : (flags & FLAGS_UPPERCASE ? 'A' : 'a') + digit - 10;
    1018:	0206f613          	andi	a2,a3,32
    101c:	06100713          	li	a4,97
    1020:	00060463          	beqz	a2,1028 <_vsnprintf+0x80c>
    1024:	04100713          	li	a4,65
    1028:	0ff77f13          	zext.b	t5,a4
    102c:	00900813          	li	a6,9
    1030:	04010713          	addi	a4,sp,64
    1034:	ff6f0f13          	addi	t5,t5,-10
d:\PDS\SparrowRV-master\bsp\bsp_app\obj/../lib/driver/src/printf.c:321
    } while (value && (len < PRINTF_NTOA_BUFFER_SIZE));
    1038:	02000e93          	li	t4,32
    103c:	0280006f          	j	1064 <_vsnprintf+0x848>
d:\PDS\SparrowRV-master\bsp\bsp_app\obj/../lib/driver/src/printf.c:319
      buf[len++] = digit < 10 ? '0' + digit : (flags & FLAGS_UPPERCASE ? 'A' : 'a') + digit - 10;
    1040:	03060613          	addi	a2,a2,48
    1044:	0ff67613          	zext.b	a2,a2
    1048:	00178793          	addi	a5,a5,1
    104c:	00f70533          	add	a0,a4,a5
    1050:	fec50fa3          	sb	a2,-1(a0)
d:\PDS\SparrowRV-master\bsp\bsp_app\obj/../lib/driver/src/printf.c:320
      value /= base;
    1054:	0315d633          	divu	a2,a1,a7
d:\PDS\SparrowRV-master\bsp\bsp_app\obj/../lib/driver/src/printf.c:321
    } while (value && (len < PRINTF_NTOA_BUFFER_SIZE));
    1058:	b515e4e3          	bltu	a1,a7,ba0 <_vsnprintf+0x384>
    105c:	b5d782e3          	beq	a5,t4,ba0 <_vsnprintf+0x384>
d:\PDS\SparrowRV-master\bsp\bsp_app\obj/../lib/driver/src/printf.c:320
      value /= base;
    1060:	00060593          	mv	a1,a2
d:\PDS\SparrowRV-master\bsp\bsp_app\obj/../lib/driver/src/printf.c:318
      const char digit = (char)(value % base);
    1064:	0315f533          	remu	a0,a1,a7
    1068:	0ff57613          	zext.b	a2,a0
d:\PDS\SparrowRV-master\bsp\bsp_app\obj/../lib/driver/src/printf.c:319
      buf[len++] = digit < 10 ? '0' + digit : (flags & FLAGS_UPPERCASE ? 'A' : 'a') + digit - 10;
    106c:	fca87ae3          	bgeu	a6,a0,1040 <_vsnprintf+0x824>
    1070:	01e60633          	add	a2,a2,t5
    1074:	0ff67613          	zext.b	a2,a2
    1078:	fd1ff06f          	j	1048 <_vsnprintf+0x82c>
_vsnprintf():
d:\PDS\SparrowRV-master\bsp\bsp_app\obj/../lib/driver/src/printf.c:767
            idx = _ntoa_long_long(out, buffer, idx, maxlen, va_arg(va, unsigned long long), false, base, precision, width, flags);
    107c:	007d0d13          	addi	s10,s10,7
    1080:	ff8d7d13          	andi	s10,s10,-8
    1084:	000d2f83          	lw	t6,0(s10)
    1088:	004d2c83          	lw	s9,4(s10)
    108c:	008d0d13          	addi	s10,s10,8
_ntoa_long_long():
d:\PDS\SparrowRV-master\bsp\bsp_app\obj/../lib/driver/src/printf.c:336
  if (!value) {
    1090:	019fe7b3          	or	a5,t6,s9
    1094:	02079863          	bnez	a5,10c4 <_vsnprintf+0x8a8>
d:\PDS\SparrowRV-master\bsp\bsp_app\obj/../lib/driver/src/printf.c:337
    flags &= ~FLAGS_HASH;
    1098:	fef6f693          	andi	a3,a3,-17
d:\PDS\SparrowRV-master\bsp\bsp_app\obj/../lib/driver/src/printf.c:341
  if (!(flags & FLAGS_PRECISION) || value) {
    109c:	02050463          	beqz	a0,10c4 <_vsnprintf+0x8a8>
d:\PDS\SparrowRV-master\bsp\bsp_app\obj/../lib/driver/src/printf.c:333
  size_t len = 0U;
    10a0:	00000d93          	li	s11,0
    10a4:	04010713          	addi	a4,sp,64
d:\PDS\SparrowRV-master\bsp\bsp_app\obj/../lib/driver/src/printf.c:349
  return _ntoa_format(out, buffer, idx, maxlen, buf, len, negative, (unsigned int)base, prec, width, flags);
    10a8:	00030613          	mv	a2,t1
    10ac:	00d12423          	sw	a3,8(sp)
    10b0:	00812223          	sw	s0,4(sp)
    10b4:	01c12023          	sw	t3,0(sp)
    10b8:	00000813          	li	a6,0
    10bc:	000d8793          	mv	a5,s11
    10c0:	a4dff06f          	j	b0c <_vsnprintf+0x2f0>
d:\PDS\SparrowRV-master\bsp\bsp_app\obj/../lib/driver/src/printf.c:344
      buf[len++] = digit < 10 ? '0' + digit : (flags & FLAGS_UPPERCASE ? 'A' : 'a') + digit - 10;
    10c4:	0206f713          	andi	a4,a3,32
    10c8:	06100793          	li	a5,97
    10cc:	00070463          	beqz	a4,10d4 <_vsnprintf+0x8b8>
    10d0:	04100793          	li	a5,65
    10d4:	0ff7f593          	zext.b	a1,a5
    10d8:	00000d93          	li	s11,0
    10dc:	04010713          	addi	a4,sp,64
    10e0:	ff658793          	addi	a5,a1,-10
    10e4:	02812023          	sw	s0,32(sp)
    10e8:	03412823          	sw	s4,48(sp)
    10ec:	03312a23          	sw	s3,52(sp)
    10f0:	03212c23          	sw	s2,56(sp)
    10f4:	03812e23          	sw	s8,60(sp)
    10f8:	01112e23          	sw	a7,28(sp)
    10fc:	000d8c13          	mv	s8,s11
    1100:	03c12223          	sw	t3,36(sp)
    1104:	000d0d93          	mv	s11,s10
    1108:	02612423          	sw	t1,40(sp)
    110c:	02d12623          	sw	a3,44(sp)
    1110:	000f8413          	mv	s0,t6
    1114:	000f0993          	mv	s3,t5
    1118:	00060a13          	mv	s4,a2
    111c:	00070913          	mv	s2,a4
    1120:	00078d13          	mv	s10,a5
    1124:	0400006f          	j	1164 <_vsnprintf+0x948>
    1128:	03050793          	addi	a5,a0,48
    112c:	0ff7f793          	zext.b	a5,a5
    1130:	001c0c13          	addi	s8,s8,1
    1134:	01890833          	add	a6,s2,s8
d:\PDS\SparrowRV-master\bsp\bsp_app\obj/../lib/driver/src/printf.c:345
      value /= base;
    1138:	00098613          	mv	a2,s3
    113c:	00000693          	li	a3,0
    1140:	00040513          	mv	a0,s0
    1144:	000c8593          	mv	a1,s9
d:\PDS\SparrowRV-master\bsp\bsp_app\obj/../lib/driver/src/printf.c:344
      buf[len++] = digit < 10 ? '0' + digit : (flags & FLAGS_UPPERCASE ? 'A' : 'a') + digit - 10;
    1148:	fef80fa3          	sb	a5,-1(a6)
d:\PDS\SparrowRV-master\bsp\bsp_app\obj/../lib/driver/src/printf.c:345
      value /= base;
    114c:	2c0020ef          	jal	ra,340c <__udivdi3>
d:\PDS\SparrowRV-master\bsp\bsp_app\obj/../lib/driver/src/printf.c:346
    } while (value && (len < PRINTF_NTOA_BUFFER_SIZE));
    1150:	0f9a0263          	beq	s4,s9,1234 <_vsnprintf+0xa18>
    1154:	02000793          	li	a5,32
    1158:	0efc0063          	beq	s8,a5,1238 <_vsnprintf+0xa1c>
d:\PDS\SparrowRV-master\bsp\bsp_app\obj/../lib/driver/src/printf.c:345
      value /= base;
    115c:	00050413          	mv	s0,a0
    1160:	00058c93          	mv	s9,a1
d:\PDS\SparrowRV-master\bsp\bsp_app\obj/../lib/driver/src/printf.c:343
      const char digit = /*(char)*/(value % base);
    1164:	00098613          	mv	a2,s3
    1168:	00000693          	li	a3,0
    116c:	00040513          	mv	a0,s0
    1170:	000c8593          	mv	a1,s9
    1174:	750020ef          	jal	ra,38c4 <__umoddi3>
    1178:	0ff57513          	zext.b	a0,a0
d:\PDS\SparrowRV-master\bsp\bsp_app\obj/../lib/driver/src/printf.c:344
      buf[len++] = digit < 10 ? '0' + digit : (flags & FLAGS_UPPERCASE ? 'A' : 'a') + digit - 10;
    117c:	00900793          	li	a5,9
    1180:	faa7f4e3          	bgeu	a5,a0,1128 <_vsnprintf+0x90c>
    1184:	01a507b3          	add	a5,a0,s10
    1188:	0ff7f793          	zext.b	a5,a5
    118c:	fa5ff06f          	j	1130 <_vsnprintf+0x914>
_vsnprintf():
d:\PDS\SparrowRV-master\bsp\bsp_app\obj/../lib/driver/src/printf.c:771
            idx = _ntoa_long(out, buffer, idx, maxlen, va_arg(va, unsigned long), false, base, precision, width, flags);
    1190:	000d2783          	lw	a5,0(s10)
_ntoa_long():
d:\PDS\SparrowRV-master\bsp\bsp_app\obj/../lib/driver/src/printf.c:311
  if (!value) {
    1194:	00079863          	bnez	a5,11a4 <_vsnprintf+0x988>
d:\PDS\SparrowRV-master\bsp\bsp_app\obj/../lib/driver/src/printf.c:312
    flags &= ~FLAGS_HASH;
    1198:	fef6f693          	andi	a3,a3,-17
d:\PDS\SparrowRV-master\bsp\bsp_app\obj/../lib/driver/src/printf.c:316
  if (!(flags & FLAGS_PRECISION) || value) {
    119c:	04010713          	addi	a4,sp,64
    11a0:	06051463          	bnez	a0,1208 <_vsnprintf+0x9ec>
d:\PDS\SparrowRV-master\bsp\bsp_app\obj/../lib/driver/src/printf.c:319
      buf[len++] = digit < 10 ? '0' + digit : (flags & FLAGS_UPPERCASE ? 'A' : 'a') + digit - 10;
    11a4:	0206f613          	andi	a2,a3,32
    11a8:	06100713          	li	a4,97
    11ac:	00060463          	beqz	a2,11b4 <_vsnprintf+0x998>
    11b0:	04100713          	li	a4,65
    11b4:	0ff77f13          	zext.b	t5,a4
    11b8:	00900813          	li	a6,9
    11bc:	04010713          	addi	a4,sp,64
    11c0:	ff6f0f13          	addi	t5,t5,-10
d:\PDS\SparrowRV-master\bsp\bsp_app\obj/../lib/driver/src/printf.c:321
    } while (value && (len < PRINTF_NTOA_BUFFER_SIZE));
    11c4:	02000e93          	li	t4,32
    11c8:	0280006f          	j	11f0 <_vsnprintf+0x9d4>
d:\PDS\SparrowRV-master\bsp\bsp_app\obj/../lib/driver/src/printf.c:319
      buf[len++] = digit < 10 ? '0' + digit : (flags & FLAGS_UPPERCASE ? 'A' : 'a') + digit - 10;
    11cc:	03060613          	addi	a2,a2,48
    11d0:	0ff67613          	zext.b	a2,a2
    11d4:	00158593          	addi	a1,a1,1
    11d8:	00b70533          	add	a0,a4,a1
    11dc:	fec50fa3          	sb	a2,-1(a0)
d:\PDS\SparrowRV-master\bsp\bsp_app\obj/../lib/driver/src/printf.c:320
      value /= base;
    11e0:	0317d633          	divu	a2,a5,a7
d:\PDS\SparrowRV-master\bsp\bsp_app\obj/../lib/driver/src/printf.c:321
    } while (value && (len < PRINTF_NTOA_BUFFER_SIZE));
    11e4:	0317e263          	bltu	a5,a7,1208 <_vsnprintf+0x9ec>
    11e8:	03d58063          	beq	a1,t4,1208 <_vsnprintf+0x9ec>
d:\PDS\SparrowRV-master\bsp\bsp_app\obj/../lib/driver/src/printf.c:320
      value /= base;
    11ec:	00060793          	mv	a5,a2
d:\PDS\SparrowRV-master\bsp\bsp_app\obj/../lib/driver/src/printf.c:318
      const char digit = (char)(value % base);
    11f0:	0317f533          	remu	a0,a5,a7
    11f4:	0ff57613          	zext.b	a2,a0
d:\PDS\SparrowRV-master\bsp\bsp_app\obj/../lib/driver/src/printf.c:319
      buf[len++] = digit < 10 ? '0' + digit : (flags & FLAGS_UPPERCASE ? 'A' : 'a') + digit - 10;
    11f8:	fca87ae3          	bgeu	a6,a0,11cc <_vsnprintf+0x9b0>
    11fc:	01e60633          	add	a2,a2,t5
    1200:	0ff67613          	zext.b	a2,a2
    1204:	fd1ff06f          	j	11d4 <_vsnprintf+0x9b8>
d:\PDS\SparrowRV-master\bsp\bsp_app\obj/../lib/driver/src/printf.c:324
  return _ntoa_format(out, buffer, idx, maxlen, buf, len, negative, (unsigned int)base, prec, width, flags);
    1208:	00030613          	mv	a2,t1
    120c:	00d12423          	sw	a3,8(sp)
    1210:	00812223          	sw	s0,4(sp)
    1214:	01c12023          	sw	t3,0(sp)
    1218:	00000813          	li	a6,0
    121c:	00058793          	mv	a5,a1
    1220:	995ff06f          	j	bb4 <_vsnprintf+0x398>
_vsnprintf():
d:\PDS\SparrowRV-master\bsp\bsp_app\obj/../lib/driver/src/printf.c:774 (discriminator 2)
            const unsigned int value = (flags & FLAGS_CHAR) ? (unsigned char)va_arg(va, unsigned int) : (flags & FLAGS_SHORT) ? (unsigned short int)va_arg(va, unsigned int) : va_arg(va, unsigned int);
    1224:	0806f713          	andi	a4,a3,128
    1228:	04070263          	beqz	a4,126c <_vsnprintf+0xa50>
    122c:	000d5583          	lhu	a1,0(s10)
    1230:	95dff06f          	j	b8c <_vsnprintf+0x370>
_ntoa_long_long():
d:\PDS\SparrowRV-master\bsp\bsp_app\obj/../lib/driver/src/printf.c:346
    } while (value && (len < PRINTF_NTOA_BUFFER_SIZE));
    1234:	f33470e3          	bgeu	s0,s3,1154 <_vsnprintf+0x938>
    1238:	000d8d13          	mv	s10,s11
    123c:	00090713          	mv	a4,s2
    1240:	000c0d93          	mv	s11,s8
    1244:	01c12883          	lw	a7,28(sp)
    1248:	02012403          	lw	s0,32(sp)
    124c:	02412e03          	lw	t3,36(sp)
    1250:	02812303          	lw	t1,40(sp)
    1254:	02c12683          	lw	a3,44(sp)
    1258:	03012a03          	lw	s4,48(sp)
    125c:	03412983          	lw	s3,52(sp)
    1260:	03c12c03          	lw	s8,60(sp)
    1264:	03812903          	lw	s2,56(sp)
    1268:	e41ff06f          	j	10a8 <_vsnprintf+0x88c>
_vsnprintf():
d:\PDS\SparrowRV-master\bsp\bsp_app\obj/../lib/driver/src/printf.c:774
            const unsigned int value = (flags & FLAGS_CHAR) ? (unsigned char)va_arg(va, unsigned int) : (flags & FLAGS_SHORT) ? (unsigned short int)va_arg(va, unsigned int) : va_arg(va, unsigned int);
    126c:	000d2583          	lw	a1,0(s10)
    1270:	91dff06f          	j	b8c <_vsnprintf+0x370>
d:\PDS\SparrowRV-master\bsp\bsp_app\obj/../lib/driver/src/printf.c:828
          while (l++ < width) {
    1274:	001c8c93          	addi	s9,s9,1
    1278:	d45ff06f          	j	fbc <_vsnprintf+0x7a0>
d:\PDS\SparrowRV-master\bsp\bsp_app\obj/../lib/driver/src/printf.c:809
        out((char)va_arg(va, int), buffer, idx++, maxlen);
    127c:	000d4503          	lbu	a0,0(s10)
    1280:	00090693          	mv	a3,s2
    1284:	00030613          	mv	a2,t1
    1288:	00098593          	mv	a1,s3
    128c:	000a00e7          	jalr	s4
d:\PDS\SparrowRV-master\bsp\bsp_app\obj/../lib/driver/src/printf.c:821
        const char* p = va_arg(va, char*);
    1290:	01c12d03          	lw	s10,28(sp)
d:\PDS\SparrowRV-master\bsp\bsp_app\obj/../lib/driver/src/printf.c:804
          while (l++ < width) {
    1294:	000c8313          	mv	t1,s9
d:\PDS\SparrowRV-master\bsp\bsp_app\obj/../lib/driver/src/printf.c:843
        break;
    1298:	f28ff06f          	j	9c0 <_vsnprintf+0x1a4>
d:\PDS\SparrowRV-master\bsp\bsp_app\obj/../lib/driver/src/printf.c:778
        format++;
    129c:	00070c13          	mv	s8,a4
    12a0:	ea8ff06f          	j	948 <_vsnprintf+0x12c>
d:\PDS\SparrowRV-master\bsp\bsp_app\obj/../lib/driver/src/printf.c:717
        if (*format == 'x' || *format == 'X') {
    12a4:	07800793          	li	a5,120
    12a8:	2af50463          	beq	a0,a5,1550 <_vsnprintf+0xd34>
    12ac:	06f00793          	li	a5,111
    12b0:	18f50c63          	beq	a0,a5,1448 <_vsnprintf+0xc2c>
d:\PDS\SparrowRV-master\bsp\bsp_app\obj/../lib/driver/src/printf.c:736
        if ((*format != 'i') && (*format != 'd')) {
    12b4:	06900793          	li	a5,105
d:\PDS\SparrowRV-master\bsp\bsp_app\obj/../lib/driver/src/printf.c:728
          flags &= ~FLAGS_HASH;   // no hash for dec format
    12b8:	fef6fe93          	andi	t4,a3,-17
d:\PDS\SparrowRV-master\bsp\bsp_app\obj/../lib/driver/src/printf.c:736
        if ((*format != 'i') && (*format != 'd')) {
    12bc:	2af51863          	bne	a0,a5,156c <_vsnprintf+0xd50>
d:\PDS\SparrowRV-master\bsp\bsp_app\obj/../lib/driver/src/printf.c:741
        if (flags & FLAGS_PRECISION) {
    12c0:	4006f613          	andi	a2,a3,1024
    12c4:	00060463          	beqz	a2,12cc <_vsnprintf+0xab0>
d:\PDS\SparrowRV-master\bsp\bsp_app\obj/../lib/driver/src/printf.c:742
          flags &= ~FLAGS_ZEROPAD;
    12c8:	fee6fe93          	andi	t4,a3,-18
d:\PDS\SparrowRV-master\bsp\bsp_app\obj/../lib/driver/src/printf.c:748
          if (flags & FLAGS_LONG_LONG) {
    12cc:	200ef693          	andi	a3,t4,512
    12d0:	06069e63          	bnez	a3,134c <_vsnprintf+0xb30>
d:\PDS\SparrowRV-master\bsp\bsp_app\obj/../lib/driver/src/printf.c:754
          else if (flags & FLAGS_LONG) {
    12d4:	100ef793          	andi	a5,t4,256
d:\PDS\SparrowRV-master\bsp\bsp_app\obj/../lib/driver/src/printf.c:755
            const long value = va_arg(va, long);
    12d8:	004d0c93          	addi	s9,s10,4
d:\PDS\SparrowRV-master\bsp\bsp_app\obj/../lib/driver/src/printf.c:754
          else if (flags & FLAGS_LONG) {
    12dc:	1a079663          	bnez	a5,1488 <_vsnprintf+0xc6c>
d:\PDS\SparrowRV-master\bsp\bsp_app\obj/../lib/driver/src/printf.c:759
            const int value = (flags & FLAGS_CHAR) ? (char)va_arg(va, int) : (flags & FLAGS_SHORT) ? (short int)va_arg(va, int) : va_arg(va, int);
    12e0:	040ef713          	andi	a4,t4,64
    12e4:	18070063          	beqz	a4,1464 <_vsnprintf+0xc48>
    12e8:	000d4703          	lbu	a4,0(s10)
    12ec:	00070693          	mv	a3,a4
d:\PDS\SparrowRV-master\bsp\bsp_app\obj/../lib/driver/src/printf.c:760 (discriminator 8)
            idx = _ntoa_long(out, buffer, idx, maxlen, (unsigned int)(value > 0 ? value : 0 - value), value < 0, base, precision, width, flags);
    12f0:	01f75813          	srli	a6,a4,0x1f
_ntoa_long():
d:\PDS\SparrowRV-master\bsp\bsp_app\obj/../lib/driver/src/printf.c:311 (discriminator 8)
  if (!value) {
    12f4:	20070063          	beqz	a4,14f4 <_vsnprintf+0xcd8>
_vsnprintf():
d:\PDS\SparrowRV-master\bsp\bsp_app\obj/../lib/driver/src/printf.c:760
            idx = _ntoa_long(out, buffer, idx, maxlen, (unsigned int)(value > 0 ? value : 0 - value), value < 0, base, precision, width, flags);
    12f8:	00068613          	mv	a2,a3
    12fc:	04010713          	addi	a4,sp,64
_ntoa_long():
d:\PDS\SparrowRV-master\bsp\bsp_app\obj/../lib/driver/src/printf.c:318
      const char digit = (char)(value % base);
    1300:	00a00593          	li	a1,10
d:\PDS\SparrowRV-master\bsp\bsp_app\obj/../lib/driver/src/printf.c:321
    } while (value && (len < PRINTF_NTOA_BUFFER_SIZE));
    1304:	00900f13          	li	t5,9
    1308:	02000f93          	li	t6,32
    130c:	0080006f          	j	1314 <_vsnprintf+0xaf8>
    1310:	03f78263          	beq	a5,t6,1334 <_vsnprintf+0xb18>
d:\PDS\SparrowRV-master\bsp\bsp_app\obj/../lib/driver/src/printf.c:318
      const char digit = (char)(value % base);
    1314:	02b676b3          	remu	a3,a2,a1
d:\PDS\SparrowRV-master\bsp\bsp_app\obj/../lib/driver/src/printf.c:319
      buf[len++] = digit < 10 ? '0' + digit : (flags & FLAGS_UPPERCASE ? 'A' : 'a') + digit - 10;
    1318:	00178793          	addi	a5,a5,1
    131c:	00f708b3          	add	a7,a4,a5
    1320:	00060513          	mv	a0,a2
    1324:	03068693          	addi	a3,a3,48
    1328:	fed88fa3          	sb	a3,-1(a7)
d:\PDS\SparrowRV-master\bsp\bsp_app\obj/../lib/driver/src/printf.c:320
      value /= base;
    132c:	02b65633          	divu	a2,a2,a1
d:\PDS\SparrowRV-master\bsp\bsp_app\obj/../lib/driver/src/printf.c:321
    } while (value && (len < PRINTF_NTOA_BUFFER_SIZE));
    1330:	feaf60e3          	bltu	t5,a0,1310 <_vsnprintf+0xaf4>
d:\PDS\SparrowRV-master\bsp\bsp_app\obj/../lib/driver/src/printf.c:324
  return _ntoa_format(out, buffer, idx, maxlen, buf, len, negative, (unsigned int)base, prec, width, flags);
    1334:	00030613          	mv	a2,t1
    1338:	01d12423          	sw	t4,8(sp)
    133c:	00812223          	sw	s0,4(sp)
    1340:	01c12023          	sw	t3,0(sp)
    1344:	00a00893          	li	a7,10
    1348:	86dff06f          	j	bb4 <_vsnprintf+0x398>
_vsnprintf():
d:\PDS\SparrowRV-master\bsp\bsp_app\obj/../lib/driver/src/printf.c:750
            const long long value = va_arg(va, long long);
    134c:	007d0d13          	addi	s10,s10,7
    1350:	ff8d7d13          	andi	s10,s10,-8
    1354:	004d2683          	lw	a3,4(s10)
    1358:	000d2583          	lw	a1,0(s10)
    135c:	008d0d13          	addi	s10,s10,8
d:\PDS\SparrowRV-master\bsp\bsp_app\obj/../lib/driver/src/printf.c:751
            idx = _ntoa_long_long(out, buffer, idx, maxlen, (unsigned long long)(value > 0 ? value : 0 - value), value < 0, base, precision, width, flags);
    1360:	01f6d813          	srli	a6,a3,0x1f
_ntoa_long_long():
d:\PDS\SparrowRV-master\bsp\bsp_app\obj/../lib/driver/src/printf.c:336
  if (!value) {
    1364:	00d5e7b3          	or	a5,a1,a3
    1368:	18078c63          	beqz	a5,1500 <_vsnprintf+0xce4>
_vsnprintf():
d:\PDS\SparrowRV-master\bsp\bsp_app\obj/../lib/driver/src/printf.c:751
            idx = _ntoa_long_long(out, buffer, idx, maxlen, (unsigned long long)(value > 0 ? value : 0 - value), value < 0, base, precision, width, flags);
    136c:	41f6d793          	srai	a5,a3,0x1f
    1370:	00b7c5b3          	xor	a1,a5,a1
    1374:	40f58733          	sub	a4,a1,a5
    1378:	00d7c6b3          	xor	a3,a5,a3
    137c:	00e5b633          	sltu	a2,a1,a4
    1380:	40f687b3          	sub	a5,a3,a5
    1384:	00070593          	mv	a1,a4
    1388:	40c786b3          	sub	a3,a5,a2
_ntoa_long_long():
d:\PDS\SparrowRV-master\bsp\bsp_app\obj/../lib/driver/src/printf.c:343
      const char digit = /*(char)*/(value % base);
    138c:	ccccdf37          	lui	t5,0xccccd
    1390:	ccdf0513          	addi	a0,t5,-819 # cccccccd <_sp+0xacc8cccd>
d:\PDS\SparrowRV-master\bsp\bsp_app\obj/../lib/driver/src/printf.c:341
  if (!(flags & FLAGS_PRECISION) || value) {
    1394:	00000793          	li	a5,0
    1398:	04010713          	addi	a4,sp,64
d:\PDS\SparrowRV-master\bsp\bsp_app\obj/../lib/driver/src/printf.c:343
      const char digit = /*(char)*/(value % base);
    139c:	00500f93          	li	t6,5
    13a0:	cccf0f13          	addi	t5,t5,-820
d:\PDS\SparrowRV-master\bsp\bsp_app\obj/../lib/driver/src/printf.c:346
    } while (value && (len < PRINTF_NTOA_BUFFER_SIZE));
    13a4:	02000393          	li	t2,32
    13a8:	00068d93          	mv	s11,a3
d:\PDS\SparrowRV-master\bsp\bsp_app\obj/../lib/driver/src/printf.c:343
      const char digit = /*(char)*/(value % base);
    13ac:	01b586b3          	add	a3,a1,s11
    13b0:	00b6b633          	sltu	a2,a3,a1
    13b4:	00c68633          	add	a2,a3,a2
    13b8:	03f67633          	remu	a2,a2,t6
    13bc:	000d8893          	mv	a7,s11
d:\PDS\SparrowRV-master\bsp\bsp_app\obj/../lib/driver/src/printf.c:344
      buf[len++] = digit < 10 ? '0' + digit : (flags & FLAGS_UPPERCASE ? 'A' : 'a') + digit - 10;
    13c0:	00178793          	addi	a5,a5,1
    13c4:	00f702b3          	add	t0,a4,a5
    13c8:	00058c93          	mv	s9,a1
d:\PDS\SparrowRV-master\bsp\bsp_app\obj/../lib/driver/src/printf.c:343
      const char digit = /*(char)*/(value % base);
    13cc:	40c58633          	sub	a2,a1,a2
    13d0:	00c5b6b3          	sltu	a3,a1,a2
    13d4:	40dd86b3          	sub	a3,s11,a3
    13d8:	03e600b3          	mul	ra,a2,t5
    13dc:	02a686b3          	mul	a3,a3,a0
    13e0:	02a63db3          	mulhu	s11,a2,a0
    13e4:	001686b3          	add	a3,a3,ra
    13e8:	02a60633          	mul	a2,a2,a0
    13ec:	01b686b3          	add	a3,a3,s11
    13f0:	01f69093          	slli	ra,a3,0x1f
d:\PDS\SparrowRV-master\bsp\bsp_app\obj/../lib/driver/src/printf.c:345
      value /= base;
    13f4:	0016dd93          	srli	s11,a3,0x1
d:\PDS\SparrowRV-master\bsp\bsp_app\obj/../lib/driver/src/printf.c:343
      const char digit = /*(char)*/(value % base);
    13f8:	00165613          	srli	a2,a2,0x1
    13fc:	00c0e633          	or	a2,ra,a2
    1400:	00261693          	slli	a3,a2,0x2
    1404:	00c686b3          	add	a3,a3,a2
    1408:	00169693          	slli	a3,a3,0x1
    140c:	40d586b3          	sub	a3,a1,a3
d:\PDS\SparrowRV-master\bsp\bsp_app\obj/../lib/driver/src/printf.c:344
      buf[len++] = digit < 10 ? '0' + digit : (flags & FLAGS_UPPERCASE ? 'A' : 'a') + digit - 10;
    1410:	03068693          	addi	a3,a3,48
    1414:	fed28fa3          	sb	a3,-1(t0)
d:\PDS\SparrowRV-master\bsp\bsp_app\obj/../lib/driver/src/printf.c:345
      value /= base;
    1418:	00060593          	mv	a1,a2
d:\PDS\SparrowRV-master\bsp\bsp_app\obj/../lib/driver/src/printf.c:346
    } while (value && (len < PRINTF_NTOA_BUFFER_SIZE));
    141c:	02088063          	beqz	a7,143c <_vsnprintf+0xc20>
    1420:	f87796e3          	bne	a5,t2,13ac <_vsnprintf+0xb90>
d:\PDS\SparrowRV-master\bsp\bsp_app\obj/../lib/driver/src/printf.c:349
  return _ntoa_format(out, buffer, idx, maxlen, buf, len, negative, (unsigned int)base, prec, width, flags);
    1424:	00030613          	mv	a2,t1
    1428:	01d12423          	sw	t4,8(sp)
    142c:	00812223          	sw	s0,4(sp)
    1430:	01c12023          	sw	t3,0(sp)
    1434:	00a00893          	li	a7,10
    1438:	ed4ff06f          	j	b0c <_vsnprintf+0x2f0>
d:\PDS\SparrowRV-master\bsp\bsp_app\obj/../lib/driver/src/printf.c:346
    } while (value && (len < PRINTF_NTOA_BUFFER_SIZE));
    143c:	00900693          	li	a3,9
    1440:	ff96e0e3          	bltu	a3,s9,1420 <_vsnprintf+0xc04>
    1444:	fe1ff06f          	j	1424 <_vsnprintf+0xc08>
_vsnprintf():
d:\PDS\SparrowRV-master\bsp\bsp_app\obj/../lib/driver/src/printf.c:741
        if (flags & FLAGS_PRECISION) {
    1448:	4006f513          	andi	a0,a3,1024
    144c:	0e050263          	beqz	a0,1530 <_vsnprintf+0xd14>
    1450:	00800893          	li	a7,8
    1454:	00800f13          	li	t5,8
    1458:	00000613          	li	a2,0
d:\PDS\SparrowRV-master\bsp\bsp_app\obj/../lib/driver/src/printf.c:742
          flags &= ~FLAGS_ZEROPAD;
    145c:	ff26f693          	andi	a3,a3,-14
d:\PDS\SparrowRV-master\bsp\bsp_app\obj/../lib/driver/src/printf.c:746
        if ((*format == 'i') || (*format == 'd')) {
    1460:	f0cff06f          	j	b6c <_vsnprintf+0x350>
d:\PDS\SparrowRV-master\bsp\bsp_app\obj/../lib/driver/src/printf.c:759 (discriminator 2)
            const int value = (flags & FLAGS_CHAR) ? (char)va_arg(va, int) : (flags & FLAGS_SHORT) ? (short int)va_arg(va, int) : va_arg(va, int);
    1464:	080ef713          	andi	a4,t4,128
    1468:	0a070463          	beqz	a4,1510 <_vsnprintf+0xcf4>
d:\PDS\SparrowRV-master\bsp\bsp_app\obj/../lib/driver/src/printf.c:759
    146c:	000d1703          	lh	a4,0(s10)
d:\PDS\SparrowRV-master\bsp\bsp_app\obj/../lib/driver/src/printf.c:760
            idx = _ntoa_long(out, buffer, idx, maxlen, (unsigned int)(value > 0 ? value : 0 - value), value < 0, base, precision, width, flags);
    1470:	40f75593          	srai	a1,a4,0xf
    1474:	00b746b3          	xor	a3,a4,a1
    1478:	40b686b3          	sub	a3,a3,a1
    147c:	01069693          	slli	a3,a3,0x10
    1480:	0106d693          	srli	a3,a3,0x10
    1484:	e6dff06f          	j	12f0 <_vsnprintf+0xad4>
d:\PDS\SparrowRV-master\bsp\bsp_app\obj/../lib/driver/src/printf.c:755
            const long value = va_arg(va, long);
    1488:	000d2783          	lw	a5,0(s10)
d:\PDS\SparrowRV-master\bsp\bsp_app\obj/../lib/driver/src/printf.c:756
            idx = _ntoa_long(out, buffer, idx, maxlen, (unsigned long)(value > 0 ? value : 0 - value), value < 0, base, precision, width, flags);
    148c:	01f7d813          	srli	a6,a5,0x1f
_ntoa_long():
d:\PDS\SparrowRV-master\bsp\bsp_app\obj/../lib/driver/src/printf.c:311
  if (!value) {
    1490:	08078a63          	beqz	a5,1524 <_vsnprintf+0xd08>
_vsnprintf():
d:\PDS\SparrowRV-master\bsp\bsp_app\obj/../lib/driver/src/printf.c:756
            idx = _ntoa_long(out, buffer, idx, maxlen, (unsigned long)(value > 0 ? value : 0 - value), value < 0, base, precision, width, flags);
    1494:	41f7d713          	srai	a4,a5,0x1f
    1498:	00f74633          	xor	a2,a4,a5
    149c:	40e60633          	sub	a2,a2,a4
    14a0:	04010713          	addi	a4,sp,64
_ntoa_long():
d:\PDS\SparrowRV-master\bsp\bsp_app\obj/../lib/driver/src/printf.c:318
      const char digit = (char)(value % base);
    14a4:	00a00593          	li	a1,10
d:\PDS\SparrowRV-master\bsp\bsp_app\obj/../lib/driver/src/printf.c:321
    } while (value && (len < PRINTF_NTOA_BUFFER_SIZE));
    14a8:	00900f13          	li	t5,9
    14ac:	02000f93          	li	t6,32
    14b0:	0080006f          	j	14b8 <_vsnprintf+0xc9c>
    14b4:	03f68263          	beq	a3,t6,14d8 <_vsnprintf+0xcbc>
d:\PDS\SparrowRV-master\bsp\bsp_app\obj/../lib/driver/src/printf.c:318
      const char digit = (char)(value % base);
    14b8:	02b677b3          	remu	a5,a2,a1
d:\PDS\SparrowRV-master\bsp\bsp_app\obj/../lib/driver/src/printf.c:319
      buf[len++] = digit < 10 ? '0' + digit : (flags & FLAGS_UPPERCASE ? 'A' : 'a') + digit - 10;
    14bc:	00168693          	addi	a3,a3,1
    14c0:	00d708b3          	add	a7,a4,a3
    14c4:	00060513          	mv	a0,a2
    14c8:	03078793          	addi	a5,a5,48
    14cc:	fef88fa3          	sb	a5,-1(a7)
d:\PDS\SparrowRV-master\bsp\bsp_app\obj/../lib/driver/src/printf.c:320
      value /= base;
    14d0:	02b65633          	divu	a2,a2,a1
d:\PDS\SparrowRV-master\bsp\bsp_app\obj/../lib/driver/src/printf.c:321
    } while (value && (len < PRINTF_NTOA_BUFFER_SIZE));
    14d4:	feaf60e3          	bltu	t5,a0,14b4 <_vsnprintf+0xc98>
d:\PDS\SparrowRV-master\bsp\bsp_app\obj/../lib/driver/src/printf.c:324
  return _ntoa_format(out, buffer, idx, maxlen, buf, len, negative, (unsigned int)base, prec, width, flags);
    14d8:	00030613          	mv	a2,t1
    14dc:	01d12423          	sw	t4,8(sp)
    14e0:	00812223          	sw	s0,4(sp)
    14e4:	01c12023          	sw	t3,0(sp)
    14e8:	00a00893          	li	a7,10
    14ec:	00068793          	mv	a5,a3
    14f0:	ec4ff06f          	j	bb4 <_vsnprintf+0x398>
d:\PDS\SparrowRV-master\bsp\bsp_app\obj/../lib/driver/src/printf.c:316
  if (!(flags & FLAGS_PRECISION) || value) {
    14f4:	04010713          	addi	a4,sp,64
    14f8:	e2061ee3          	bnez	a2,1334 <_vsnprintf+0xb18>
    14fc:	e01ff06f          	j	12fc <_vsnprintf+0xae0>
_ntoa_long_long():
d:\PDS\SparrowRV-master\bsp\bsp_app\obj/../lib/driver/src/printf.c:341
  if (!(flags & FLAGS_PRECISION) || value) {
    1500:	04061263          	bnez	a2,1544 <_vsnprintf+0xd28>
    1504:	00000593          	li	a1,0
    1508:	00000693          	li	a3,0
    150c:	e81ff06f          	j	138c <_vsnprintf+0xb70>
_vsnprintf():
d:\PDS\SparrowRV-master\bsp\bsp_app\obj/../lib/driver/src/printf.c:759
            const int value = (flags & FLAGS_CHAR) ? (char)va_arg(va, int) : (flags & FLAGS_SHORT) ? (short int)va_arg(va, int) : va_arg(va, int);
    1510:	000d2703          	lw	a4,0(s10)
d:\PDS\SparrowRV-master\bsp\bsp_app\obj/../lib/driver/src/printf.c:760
            idx = _ntoa_long(out, buffer, idx, maxlen, (unsigned int)(value > 0 ? value : 0 - value), value < 0, base, precision, width, flags);
    1514:	41f75593          	srai	a1,a4,0x1f
    1518:	00e5c6b3          	xor	a3,a1,a4
    151c:	40b686b3          	sub	a3,a3,a1
    1520:	dd1ff06f          	j	12f0 <_vsnprintf+0xad4>
_ntoa_long():
d:\PDS\SparrowRV-master\bsp\bsp_app\obj/../lib/driver/src/printf.c:316
  if (!(flags & FLAGS_PRECISION) || value) {
    1524:	04010713          	addi	a4,sp,64
    1528:	fa0618e3          	bnez	a2,14d8 <_vsnprintf+0xcbc>
    152c:	f75ff06f          	j	14a0 <_vsnprintf+0xc84>
_vsnprintf():
d:\PDS\SparrowRV-master\bsp\bsp_app\obj/../lib/driver/src/printf.c:737
          flags &= ~(FLAGS_PLUS | FLAGS_SPACE);
    1530:	ff36f693          	andi	a3,a3,-13
    1534:	00800f13          	li	t5,8
    1538:	00000613          	li	a2,0
    153c:	00800893          	li	a7,8
    1540:	e2cff06f          	j	b6c <_vsnprintf+0x350>
_ntoa_long_long():
d:\PDS\SparrowRV-master\bsp\bsp_app\obj/../lib/driver/src/printf.c:333
  size_t len = 0U;
    1544:	00000793          	li	a5,0
    1548:	04010713          	addi	a4,sp,64
    154c:	ed9ff06f          	j	1424 <_vsnprintf+0xc08>
_vsnprintf():
d:\PDS\SparrowRV-master\bsp\bsp_app\obj/../lib/driver/src/printf.c:741
        if (flags & FLAGS_PRECISION) {
    1550:	4006f513          	andi	a0,a3,1024
    1554:	aa0506e3          	beqz	a0,1000 <_vsnprintf+0x7e4>
d:\PDS\SparrowRV-master\bsp\bsp_app\obj/../lib/driver/src/printf.c:742
          flags &= ~FLAGS_ZEROPAD;
    1558:	ff26f693          	andi	a3,a3,-14
    155c:	01000f13          	li	t5,16
    1560:	00000613          	li	a2,0
    1564:	01000893          	li	a7,16
    1568:	e04ff06f          	j	b6c <_vsnprintf+0x350>
d:\PDS\SparrowRV-master\bsp\bsp_app\obj/../lib/driver/src/printf.c:736 (discriminator 1)
        if ((*format != 'i') && (*format != 'd')) {
    156c:	06400793          	li	a5,100
    1570:	d4f508e3          	beq	a0,a5,12c0 <_vsnprintf+0xaa4>
d:\PDS\SparrowRV-master\bsp\bsp_app\obj/../lib/driver/src/printf.c:741
        if (flags & FLAGS_PRECISION) {
    1574:	4006f513          	andi	a0,a3,1024
    1578:	00050e63          	beqz	a0,1594 <_vsnprintf+0xd78>
d:\PDS\SparrowRV-master\bsp\bsp_app\obj/../lib/driver/src/printf.c:728
          flags &= ~FLAGS_HASH;   // no hash for dec format
    157c:	000e8693          	mv	a3,t4
d:\PDS\SparrowRV-master\bsp\bsp_app\obj/../lib/driver/src/printf.c:727
          base = 10U;
    1580:	00a00893          	li	a7,10
d:\PDS\SparrowRV-master\bsp\bsp_app\obj/../lib/driver/src/printf.c:741
        if (flags & FLAGS_PRECISION) {
    1584:	00a00f13          	li	t5,10
    1588:	00000613          	li	a2,0
d:\PDS\SparrowRV-master\bsp\bsp_app\obj/../lib/driver/src/printf.c:742
          flags &= ~FLAGS_ZEROPAD;
    158c:	ff26f693          	andi	a3,a3,-14
d:\PDS\SparrowRV-master\bsp\bsp_app\obj/../lib/driver/src/printf.c:746
        if ((*format == 'i') || (*format == 'd')) {
    1590:	ddcff06f          	j	b6c <_vsnprintf+0x350>
d:\PDS\SparrowRV-master\bsp\bsp_app\obj/../lib/driver/src/printf.c:737
          flags &= ~(FLAGS_PLUS | FLAGS_SPACE);
    1594:	fe36f693          	andi	a3,a3,-29
    1598:	00a00f13          	li	t5,10
    159c:	00000613          	li	a2,0
d:\PDS\SparrowRV-master\bsp\bsp_app\obj/../lib/driver/src/printf.c:727
          base = 10U;
    15a0:	00a00893          	li	a7,10
    15a4:	dc8ff06f          	j	b6c <_vsnprintf+0x350>

000015a8 <init_uart0_printf>:
init_uart0_printf():
d:\PDS\SparrowRV-master\bsp\bsp_app\obj/../lib/driver/src/printf.c:43
{
    15a8:	ff010113          	addi	sp,sp,-16
    15ac:	00812423          	sw	s0,8(sp)
    15b0:	00050413          	mv	s0,a0
d:\PDS\SparrowRV-master\bsp\bsp_app\obj/../lib/driver/src/printf.c:45
  fpioa_perips_out_set(UART0_TX, uart_tx_fpioa_port);//也可以自定义
    15b4:	00700513          	li	a0,7
d:\PDS\SparrowRV-master\bsp\bsp_app\obj/../lib/driver/src/printf.c:43
{
    15b8:	00112623          	sw	ra,12(sp)
d:\PDS\SparrowRV-master\bsp\bsp_app\obj/../lib/driver/src/printf.c:45
  fpioa_perips_out_set(UART0_TX, uart_tx_fpioa_port);//也可以自定义
    15bc:	c61fe0ef          	jal	ra,21c <fpioa_perips_out_set>
d:\PDS\SparrowRV-master\bsp\bsp_app\obj/../lib/driver/src/printf.c:47
  uart_band_ctrl(UART0,band);
    15c0:	00040593          	mv	a1,s0
    15c4:	40000537          	lui	a0,0x40000
    15c8:	d31fe0ef          	jal	ra,2f8 <uart_band_ctrl>
d:\PDS\SparrowRV-master\bsp\bsp_app\obj/../lib/driver/src/printf.c:51
}
    15cc:	00812403          	lw	s0,8(sp)
    15d0:	00c12083          	lw	ra,12(sp)
d:\PDS\SparrowRV-master\bsp\bsp_app\obj/../lib/driver/src/printf.c:49
  uart_enable_ctrl(UART0, ENABLE);
    15d4:	00100593          	li	a1,1
    15d8:	40000537          	lui	a0,0x40000
d:\PDS\SparrowRV-master\bsp\bsp_app\obj/../lib/driver/src/printf.c:51
}
    15dc:	01010113          	addi	sp,sp,16
d:\PDS\SparrowRV-master\bsp\bsp_app\obj/../lib/driver/src/printf.c:49
  uart_enable_ctrl(UART0, ENABLE);
    15e0:	cf5fe06f          	j	2d4 <uart_enable_ctrl>

000015e4 <printf_>:
printf_():
d:\PDS\SparrowRV-master\bsp\bsp_app\obj/../lib/driver/src/printf.c:887


///////////////////////////////////////////////////////////////////////////////

int printf_(const char* format, ...)
{
    15e4:	fc010113          	addi	sp,sp,-64
d:\PDS\SparrowRV-master\bsp\bsp_app\obj/../lib/driver/src/printf.c:889
  va_list va;
  va_start(va, format);
    15e8:	02410313          	addi	t1,sp,36
d:\PDS\SparrowRV-master\bsp\bsp_app\obj/../lib/driver/src/printf.c:887
{
    15ec:	02d12623          	sw	a3,44(sp)
d:\PDS\SparrowRV-master\bsp\bsp_app\obj/../lib/driver/src/printf.c:891
  char buffer[1];
  const int ret = _vsnprintf(_out_char, buffer, (size_t)-1, format, va);
    15f0:	00050693          	mv	a3,a0
d:\PDS\SparrowRV-master\bsp\bsp_app\obj/../lib/driver/src/printf.c:887
{
    15f4:	02b12223          	sw	a1,36(sp)
    15f8:	02c12423          	sw	a2,40(sp)
    15fc:	02e12823          	sw	a4,48(sp)
d:\PDS\SparrowRV-master\bsp\bsp_app\obj/../lib/driver/src/printf.c:891
  const int ret = _vsnprintf(_out_char, buffer, (size_t)-1, format, va);
    1600:	00810593          	addi	a1,sp,8
    1604:	00030713          	mv	a4,t1
    1608:	fff00613          	li	a2,-1
    160c:	7fc00513          	li	a0,2044
d:\PDS\SparrowRV-master\bsp\bsp_app\obj/../lib/driver/src/printf.c:887
{
    1610:	00112e23          	sw	ra,28(sp)
    1614:	02f12a23          	sw	a5,52(sp)
    1618:	03012c23          	sw	a6,56(sp)
    161c:	03112e23          	sw	a7,60(sp)
d:\PDS\SparrowRV-master\bsp\bsp_app\obj/../lib/driver/src/printf.c:889
  va_start(va, format);
    1620:	00612623          	sw	t1,12(sp)
d:\PDS\SparrowRV-master\bsp\bsp_app\obj/../lib/driver/src/printf.c:891
  const int ret = _vsnprintf(_out_char, buffer, (size_t)-1, format, va);
    1624:	9f8ff0ef          	jal	ra,81c <_vsnprintf>
d:\PDS\SparrowRV-master\bsp\bsp_app\obj/../lib/driver/src/printf.c:894
  va_end(va);
  return ret;
}
    1628:	01c12083          	lw	ra,28(sp)
    162c:	04010113          	addi	sp,sp,64
    1630:	00008067          	ret

00001634 <car_plate_recognize_pipeline>:
car_plate_recognize_pipeline():
d:\PDS\SparrowRV-master\bsp\bsp_app\obj/../app/main.c:175
void car_plate_recognize_pipeline() {
    1634:	f3010113          	addi	sp,sp,-208
    1638:	0c112623          	sw	ra,204(sp)
    163c:	0c812423          	sw	s0,200(sp)
    1640:	0b312e23          	sw	s3,188(sp)
    1644:	0b612823          	sw	s6,176(sp)
    1648:	0c912223          	sw	s1,196(sp)
    164c:	0d212023          	sw	s2,192(sp)
    1650:	0b412c23          	sw	s4,184(sp)
    1654:	0b512a23          	sw	s5,180(sp)
    1658:	0b712623          	sw	s7,172(sp)
    165c:	0b812423          	sw	s8,168(sp)
    1660:	0b912223          	sw	s9,164(sp)
    1664:	0ba12023          	sw	s10,160(sp)
    1668:	09b12e23          	sw	s11,156(sp)
set_led5_status():
d:\PDS\SparrowRV-master\bsp\bsp_app\obj/../app/main.c:551
    uint32_t dout = fpioa_nio_dout_read(); 
    166c:	bddfe0ef          	jal	ra,248 <fpioa_nio_dout_read>
d:\PDS\SparrowRV-master\bsp\bsp_app\obj/../app/main.c:552
    if (on) dout |= NIO_16; else dout &= ~NIO_16; 
    1670:	000107b7          	lui	a5,0x10
d:\PDS\SparrowRV-master\bsp\bsp_app\obj/../app/main.c:553
    fpioa_nio_dout_write(dout); 
    1674:	00f56533          	or	a0,a0,a5
    1678:	bc5fe0ef          	jal	ra,23c <fpioa_nio_dout_write>
set_led6_status():
d:\PDS\SparrowRV-master\bsp\bsp_app\obj/../app/main.c:545
    uint32_t dout = fpioa_nio_dout_read(); 
    167c:	bcdfe0ef          	jal	ra,248 <fpioa_nio_dout_read>
d:\PDS\SparrowRV-master\bsp\bsp_app\obj/../app/main.c:546
    if (on) dout |= NIO_14; else dout &= ~NIO_14;
    1680:	ffffc7b7          	lui	a5,0xffffc
    1684:	fff78793          	addi	a5,a5,-1 # ffffbfff <_sp+0xdffbbfff>
d:\PDS\SparrowRV-master\bsp\bsp_app\obj/../app/main.c:547
    fpioa_nio_dout_write(dout); 
    1688:	00f57533          	and	a0,a0,a5
    168c:	bb1fe0ef          	jal	ra,23c <fpioa_nio_dout_write>
car_plate_recognize_pipeline():
d:\PDS\SparrowRV-master\bsp\bsp_app\obj/../app/main.c:182
    printf("\r\n\033[2J\033[H"); 
    1690:	20000537          	lui	a0,0x20000
    1694:	08050513          	addi	a0,a0,128 # 20000080 <_data+0x80>
    1698:	f4dff0ef          	jal	ra,15e4 <printf_>
d:\PDS\SparrowRV-master\bsp\bsp_app\obj/../app/main.c:183
    printf("=========================================================\r\n");
    169c:	20000437          	lui	s0,0x20000
    16a0:	08c40513          	addi	a0,s0,140 # 2000008c <_data+0x8c>
    16a4:	f41ff0ef          	jal	ra,15e4 <printf_>
d:\PDS\SparrowRV-master\bsp\bsp_app\obj/../app/main.c:184
    printf(">>> MRS 全自动车牌识别流水线启动 <<<\r\n");
    16a8:	20000537          	lui	a0,0x20000
    16ac:	0c850513          	addi	a0,a0,200 # 200000c8 <_data+0xc8>
    16b0:	f35ff0ef          	jal	ra,15e4 <printf_>
d:\PDS\SparrowRV-master\bsp\bsp_app\obj/../app/main.c:185
    printf("=========================================================\r\n");
    16b4:	08c40513          	addi	a0,s0,140
    16b8:	f2dff0ef          	jal	ra,15e4 <printf_>
d:\PDS\SparrowRV-master\bsp\bsp_app\obj/../app/main.c:190
    printf("\r\n[阶段 1/6] 执行 ROI 投影定位 (零内存安全版)...\r\n");
    16bc:	20000537          	lui	a0,0x20000
    16c0:	0fc50513          	addi	a0,a0,252 # 200000fc <_data+0xfc>
    16c4:	f21ff0ef          	jal	ra,15e4 <printf_>
    16c8:	a005a637          	lui	a2,0xa005a
d:\PDS\SparrowRV-master\bsp\bsp_app\obj/../app/main.c:194
    for(int y = ROI_MARGIN_Y; y < IMG_H - ROI_MARGIN_Y; y++) {
    16cc:	000018b7          	lui	a7,0x1
d:\PDS\SparrowRV-master\bsp\bsp_app\obj/../app/main.c:190
    printf("\r\n[阶段 1/6] 执行 ROI 投影定位 (零内存安全版)...\r\n");
    16d0:	4bc60613          	addi	a2,a2,1212 # a005a4bc <_sp+0x8001a4bc>
d:\PDS\SparrowRV-master\bsp\bsp_app\obj/../app/main.c:194
    for(int y = ROI_MARGIN_Y; y < IMG_H - ROI_MARGIN_Y; y++) {
    16d4:	09600813          	li	a6,150
d:\PDS\SparrowRV-master\bsp\bsp_app\obj/../app/main.c:193
    int y_min = -1, y_max = -1, max_h = 0, cur_y_min = -1;
    16d8:	fff00513          	li	a0,-1
    16dc:	00000e13          	li	t3,0
    16e0:	fff00993          	li	s3,-1
    16e4:	fff00b13          	li	s6,-1
d:\PDS\SparrowRV-master\bsp\bsp_app\obj/../app/main.c:197
            if(bin_img[row_offset + x] > 0x8000) row_count++;
    16e8:	000085b7          	lui	a1,0x8
d:\PDS\SparrowRV-master\bsp\bsp_app\obj/../app/main.c:199
        if(row_count > 15) { if(cur_y_min == -1) cur_y_min = y; } 
    16ec:	00f00f93          	li	t6,15
d:\PDS\SparrowRV-master\bsp\bsp_app\obj/../app/main.c:200
        else if(cur_y_min != -1) {
    16f0:	fff00313          	li	t1,-1
d:\PDS\SparrowRV-master\bsp\bsp_app\obj/../app/main.c:202
            if(cur_h > max_h && cur_h > 20 && cur_h < 300) {
    16f4:	11600f13          	li	t5,278
d:\PDS\SparrowRV-master\bsp\bsp_app\obj/../app/main.c:194
    for(int y = ROI_MARGIN_Y; y < IMG_H - ROI_MARGIN_Y; y++) {
    16f8:	99488893          	addi	a7,a7,-1644 # 994 <_vsnprintf+0x178>
    16fc:	23a00e93          	li	t4,570
d:\PDS\SparrowRV-master\bsp\bsp_app\obj/../app/main.c:196
        for(int x = ROI_MARGIN_X; x < BIN_IMG_W - ROI_MARGIN_X; x++) {
    1700:	98c60793          	addi	a5,a2,-1652
d:\PDS\SparrowRV-master\bsp\bsp_app\obj/../app/main.c:195
        int row_count = 0; int row_offset = y * BIN_IMG_W;
    1704:	00000693          	li	a3,0
d:\PDS\SparrowRV-master\bsp\bsp_app\obj/../app/main.c:197
            if(bin_img[row_offset + x] > 0x8000) row_count++;
    1708:	0007d703          	lhu	a4,0(a5)
d:\PDS\SparrowRV-master\bsp\bsp_app\obj/../app/main.c:196
        for(int x = ROI_MARGIN_X; x < BIN_IMG_W - ROI_MARGIN_X; x++) {
    170c:	00278793          	addi	a5,a5,2
d:\PDS\SparrowRV-master\bsp\bsp_app\obj/../app/main.c:197
            if(bin_img[row_offset + x] > 0x8000) row_count++;
    1710:	00e5b733          	sltu	a4,a1,a4
    1714:	00e686b3          	add	a3,a3,a4
d:\PDS\SparrowRV-master\bsp\bsp_app\obj/../app/main.c:196
        for(int x = ROI_MARGIN_X; x < BIN_IMG_W - ROI_MARGIN_X; x++) {
    1718:	fef618e3          	bne	a2,a5,1708 <car_plate_recognize_pipeline+0xd4>
d:\PDS\SparrowRV-master\bsp\bsp_app\obj/../app/main.c:199
        if(row_count > 15) { if(cur_y_min == -1) cur_y_min = y; } 
    171c:	3edfd0e3          	bge	t6,a3,22fc <car_plate_recognize_pipeline+0xcc8>
d:\PDS\SparrowRV-master\bsp\bsp_app\obj/../app/main.c:199 (discriminator 1)
    1720:	00651463          	bne	a0,t1,1728 <car_plate_recognize_pipeline+0xf4>
d:\PDS\SparrowRV-master\bsp\bsp_app\obj/../app/main.c:199
    1724:	00080513          	mv	a0,a6
d:\PDS\SparrowRV-master\bsp\bsp_app\obj/../app/main.c:194 (discriminator 2)
    for(int y = ROI_MARGIN_Y; y < IMG_H - ROI_MARGIN_Y; y++) {
    1728:	00180813          	addi	a6,a6,1
    172c:	01160633          	add	a2,a2,a7
    1730:	fdd818e3          	bne	a6,t4,1700 <car_plate_recognize_pipeline+0xcc>
d:\PDS\SparrowRV-master\bsp\bsp_app\obj/../app/main.c:208
    if(y_min == -1) { printf(" >> [失败] 未检测到车牌高度\r\n"); set_led5_status(0); return; }
    1734:	fff00793          	li	a5,-1
    1738:	00fb1463          	bne	s6,a5,1740 <car_plate_recognize_pipeline+0x10c>
    173c:	4c80106f          	j	2c04 <car_plate_recognize_pipeline+0x15d0>
    1740:	03198833          	mul	a6,s3,a7
    1744:	413b07b3          	sub	a5,s6,s3
    1748:	a00016b7          	lui	a3,0xa0001
    174c:	b2468693          	addi	a3,a3,-1244 # a0000b24 <_sp+0x7ffc0b24>
    1750:	fffff737          	lui	a4,0xfffff
    1754:	66c70713          	addi	a4,a4,1644 # fffff66c <_sp+0xdffbf66c>
d:\PDS\SparrowRV-master\bsp\bsp_app\obj/../app/main.c:212
    for(int x = ROI_MARGIN_X; x < BIN_IMG_W - ROI_MARGIN_X; x++) {
    1758:	0c800413          	li	s0,200
d:\PDS\SparrowRV-master\bsp\bsp_app\obj/../app/main.c:211
    int x_min = -1, x_max = -1, max_w = 0, cur_x_min = -1, gap_count = 0;
    175c:	00000313          	li	t1,0
    1760:	fff00513          	li	a0,-1
    1764:	00000e13          	li	t3,0
    1768:	031787b3          	mul	a5,a5,a7
    176c:	4ca00893          	li	a7,1226
    1770:	00d80833          	add	a6,a6,a3
d:\PDS\SparrowRV-master\bsp\bsp_app\obj/../app/main.c:214
        for(int y = y_min; y <= y_max; y++) if(bin_img[y * BIN_IMG_W + x] > 0x8000) col_count++;
    1774:	000016b7          	lui	a3,0x1
d:\PDS\SparrowRV-master\bsp\bsp_app\obj/../app/main.c:211
    int x_min = -1, x_max = -1, max_w = 0, cur_x_min = -1, gap_count = 0;
    1778:	fff00e93          	li	t4,-1
    177c:	fff00913          	li	s2,-1
d:\PDS\SparrowRV-master\bsp\bsp_app\obj/../app/main.c:218
        } else if(cur_x_min != -1) {
    1780:	fff00f13          	li	t5,-1
d:\PDS\SparrowRV-master\bsp\bsp_app\obj/../app/main.c:220
            if(gap_count > 60) { 
    1784:	03c00493          	li	s1,60
d:\PDS\SparrowRV-master\bsp\bsp_app\obj/../app/main.c:222
                if(cur_w > max_w && cur_w > 50 && cur_w < 800) {
    1788:	2ec00093          	li	ra,748
d:\PDS\SparrowRV-master\bsp\bsp_app\obj/../app/main.c:214
        for(int y = y_min; y <= y_max; y++) if(bin_img[y * BIN_IMG_W + x] > 0x8000) col_count++;
    178c:	000083b7          	lui	t2,0x8
    1790:	031b08b3          	mul	a7,s6,a7
    1794:	99468693          	addi	a3,a3,-1644 # 994 <_vsnprintf+0x178>
    1798:	00e787b3          	add	a5,a5,a4
d:\PDS\SparrowRV-master\bsp\bsp_app\obj/../app/main.c:216
        if(col_count > 2) {
    179c:	00200293          	li	t0,2
d:\PDS\SparrowRV-master\bsp\bsp_app\obj/../app/main.c:212
    for(int x = ROI_MARGIN_X; x < BIN_IMG_W - ROI_MARGIN_X; x++) {
    17a0:	40200f93          	li	t6,1026
d:\PDS\SparrowRV-master\bsp\bsp_app\obj/../app/main.c:214
        for(int y = y_min; y <= y_max; y++) if(bin_img[y * BIN_IMG_W + x] > 0x8000) col_count++;
    17a4:	01078733          	add	a4,a5,a6
d:\PDS\SparrowRV-master\bsp\bsp_app\obj/../app/main.c:213
        int col_count = 0;
    17a8:	00000613          	li	a2,0
d:\PDS\SparrowRV-master\bsp\bsp_app\obj/../app/main.c:214
        for(int y = y_min; y <= y_max; y++) if(bin_img[y * BIN_IMG_W + x] > 0x8000) col_count++;
    17ac:	3769cce3          	blt	s3,s6,2324 <car_plate_recognize_pipeline+0xcf0>
    17b0:	00075583          	lhu	a1,0(a4)
    17b4:	00d70733          	add	a4,a4,a3
    17b8:	00b3b5b3          	sltu	a1,t2,a1
    17bc:	00b60633          	add	a2,a2,a1
    17c0:	fee818e3          	bne	a6,a4,17b0 <car_plate_recognize_pipeline+0x17c>
d:\PDS\SparrowRV-master\bsp\bsp_app\obj/../app/main.c:216
        if(col_count > 2) {
    17c4:	36c2d0e3          	bge	t0,a2,2324 <car_plate_recognize_pipeline+0xcf0>
d:\PDS\SparrowRV-master\bsp\bsp_app\obj/../app/main.c:217
            if(cur_x_min == -1) cur_x_min = x; gap_count = 0; 
    17c8:	00000313          	li	t1,0
    17cc:	01e51463          	bne	a0,t5,17d4 <car_plate_recognize_pipeline+0x1a0>
    17d0:	00040513          	mv	a0,s0
d:\PDS\SparrowRV-master\bsp\bsp_app\obj/../app/main.c:212 (discriminator 2)
    for(int x = ROI_MARGIN_X; x < BIN_IMG_W - ROI_MARGIN_X; x++) {
    17d4:	00140413          	addi	s0,s0,1
    17d8:	00280813          	addi	a6,a6,2
    17dc:	fdf414e3          	bne	s0,t6,17a4 <car_plate_recognize_pipeline+0x170>
d:\PDS\SparrowRV-master\bsp\bsp_app\obj/../app/main.c:229
    if(cur_x_min != -1) {
    17e0:	fff00793          	li	a5,-1
    17e4:	00f50863          	beq	a0,a5,17f4 <car_plate_recognize_pipeline+0x1c0>
d:\PDS\SparrowRV-master\bsp\bsp_app\obj/../app/main.c:230
        int cur_w = (BIN_IMG_W - ROI_MARGIN_X - gap_count) - cur_x_min;
    17e8:	40640433          	sub	s0,s0,t1
    17ec:	40a407b3          	sub	a5,s0,a0
d:\PDS\SparrowRV-master\bsp\bsp_app\obj/../app/main.c:231
        if(cur_w > max_w && cur_w > 50 && cur_w < 800) { x_min = cur_x_min; x_max = BIN_IMG_W - ROI_MARGIN_X - gap_count; }
    17f0:	64fe44e3          	blt	t3,a5,2638 <car_plate_recognize_pipeline+0x1004>
d:\PDS\SparrowRV-master\bsp\bsp_app\obj/../app/main.c:233
    if(x_min == -1) { printf(" >> [失败] 未检测到车牌宽度\r\n"); set_led5_status(0); return; }
    17f4:	fff00793          	li	a5,-1
    17f8:	00f91463          	bne	s2,a5,1800 <car_plate_recognize_pipeline+0x1cc>
    17fc:	4e40106f          	j	2ce0 <car_plate_recognize_pipeline+0x16ac>
    1800:	000e8413          	mv	s0,t4
d:\PDS\SparrowRV-master\bsp\bsp_app\obj/../app/main.c:240
    for(int y = y_min; y <= y_max; y++) {
    1804:	0169d463          	bge	s3,s6,180c <car_plate_recognize_pipeline+0x1d8>
    1808:	4e40106f          	j	2cec <car_plate_recognize_pipeline+0x16b8>
d:\PDS\SparrowRV-master\bsp\bsp_app\obj/../app/main.c:236
    int min_sum = 9999999, max_sum = -9999999, min_diff = 9999999, max_diff = -9999999;
    180c:	ff677eb7          	lui	t4,0xff677
    1810:	00989637          	lui	a2,0x989
    1814:	00191693          	slli	a3,s2,0x1
    1818:	981e8e93          	addi	t4,t4,-1663 # ff676981 <_sp+0xdf636981>
    181c:	67f60613          	addi	a2,a2,1663 # 98967f <_app_prog_size+0x94967f>
    1820:	a0000737          	lui	a4,0xa0000
    1824:	00198093          	addi	ra,s3,1
d:\PDS\SparrowRV-master\bsp\bsp_app\obj/../app/main.c:240
    for(int y = y_min; y <= y_max; y++) {
    1828:	000b0793          	mv	a5,s6
    182c:	00098493          	mv	s1,s3
    1830:	00090a13          	mv	s4,s2
    1834:	000b0b93          	mv	s7,s6
    1838:	00040a93          	mv	s5,s0
    183c:	00040f93          	mv	t6,s0
    1840:	00090f13          	mv	t5,s2
d:\PDS\SparrowRV-master\bsp\bsp_app\obj/../app/main.c:236
    int min_sum = 9999999, max_sum = -9999999, min_diff = 9999999, max_diff = -9999999;
    1844:	000e8393          	mv	t2,t4
    1848:	00060293          	mv	t0,a2
    184c:	00e686b3          	add	a3,a3,a4
    1850:	00140e13          	addi	t3,s0,1
d:\PDS\SparrowRV-master\bsp\bsp_app\obj/../app/main.c:243
            if(bin_img[row_offset + x] > 0x8000) {
    1854:	00008337          	lui	t1,0x8
d:\PDS\SparrowRV-master\bsp\bsp_app\obj/../app/main.c:242
        for(int x = x_min; x <= x_max; x++) {
    1858:	07244663          	blt	s0,s2,18c4 <car_plate_recognize_pipeline+0x290>
    185c:	00189593          	slli	a1,a7,0x1
    1860:	00d585b3          	add	a1,a1,a3
    1864:	00090713          	mv	a4,s2
d:\PDS\SparrowRV-master\bsp\bsp_app\obj/../app/main.c:243
            if(bin_img[row_offset + x] > 0x8000) {
    1868:	0005d503          	lhu	a0,0(a1) # 8000 <__stack_size+0x4000>
d:\PDS\SparrowRV-master\bsp\bsp_app\obj/../app/main.c:244
                int sum = x + y;
    186c:	00e78833          	add	a6,a5,a4
d:\PDS\SparrowRV-master\bsp\bsp_app\obj/../app/main.c:242
        for(int x = x_min; x <= x_max; x++) {
    1870:	00258593          	addi	a1,a1,2
d:\PDS\SparrowRV-master\bsp\bsp_app\obj/../app/main.c:243
            if(bin_img[row_offset + x] > 0x8000) {
    1874:	04a37463          	bgeu	t1,a0,18bc <car_plate_recognize_pipeline+0x288>
d:\PDS\SparrowRV-master\bsp\bsp_app\obj/../app/main.c:245
                int diff = x - y;
    1878:	40f70533          	sub	a0,a4,a5
d:\PDS\SparrowRV-master\bsp\bsp_app\obj/../app/main.c:246
                if(sum < min_sum)   { min_sum = sum;   tl_x = x; tl_y = y; }
    187c:	00585863          	bge	a6,t0,188c <car_plate_recognize_pipeline+0x258>
    1880:	00070f13          	mv	t5,a4
    1884:	00078b13          	mv	s6,a5
d:\PDS\SparrowRV-master\bsp\bsp_app\obj/../app/main.c:244
                int sum = x + y;
    1888:	00080293          	mv	t0,a6
d:\PDS\SparrowRV-master\bsp\bsp_app\obj/../app/main.c:247
                if(sum > max_sum)   { max_sum = sum;   br_x = x; br_y = y; }
    188c:	0103d863          	bge	t2,a6,189c <car_plate_recognize_pipeline+0x268>
    1890:	00070f93          	mv	t6,a4
    1894:	00078993          	mv	s3,a5
d:\PDS\SparrowRV-master\bsp\bsp_app\obj/../app/main.c:244
                int sum = x + y;
    1898:	00080393          	mv	t2,a6
d:\PDS\SparrowRV-master\bsp\bsp_app\obj/../app/main.c:248
                if(diff > max_diff) { max_diff = diff; tr_x = x; tr_y = y; }
    189c:	00aed863          	bge	t4,a0,18ac <car_plate_recognize_pipeline+0x278>
    18a0:	00070a93          	mv	s5,a4
    18a4:	00078b93          	mv	s7,a5
d:\PDS\SparrowRV-master\bsp\bsp_app\obj/../app/main.c:245
                int diff = x - y;
    18a8:	00050e93          	mv	t4,a0
d:\PDS\SparrowRV-master\bsp\bsp_app\obj/../app/main.c:249
                if(diff < min_diff) { min_diff = diff; bl_x = x; bl_y = y; }
    18ac:	00c55863          	bge	a0,a2,18bc <car_plate_recognize_pipeline+0x288>
    18b0:	00070a13          	mv	s4,a4
    18b4:	00078493          	mv	s1,a5
d:\PDS\SparrowRV-master\bsp\bsp_app\obj/../app/main.c:245
                int diff = x - y;
    18b8:	00050613          	mv	a2,a0
d:\PDS\SparrowRV-master\bsp\bsp_app\obj/../app/main.c:242
        for(int x = x_min; x <= x_max; x++) {
    18bc:	00170713          	addi	a4,a4,1 # a0000001 <_sp+0x7ffc0001>
    18c0:	faee14e3          	bne	t3,a4,1868 <car_plate_recognize_pipeline+0x234>
d:\PDS\SparrowRV-master\bsp\bsp_app\obj/../app/main.c:240 (discriminator 2)
    for(int y = y_min; y <= y_max; y++) {
    18c4:	00178793          	addi	a5,a5,1
    18c8:	4ca88893          	addi	a7,a7,1226
    18cc:	f81796e3          	bne	a5,ra,1858 <car_plate_recognize_pipeline+0x224>
get_min():
d:\PDS\SparrowRV-master\bsp\bsp_app\obj/../app/main.c:52
int get_min(int a, int b) { return a < b ? a : b; }
    18d0:	000b8c93          	mv	s9,s7
    18d4:	557b4ae3          	blt	s6,s7,2628 <car_plate_recognize_pipeline+0xff4>
get_max():
d:\PDS\SparrowRV-master\bsp\bsp_app\obj/../app/main.c:51
int get_max(int a, int b) { return a > b ? a : b; }
    18d8:	00098d93          	mv	s11,s3
    18dc:	5899cae3          	blt	s3,s1,2670 <car_plate_recognize_pipeline+0x103c>
    18e0:	000f8413          	mv	s0,t6
    18e4:	000f0913          	mv	s2,t5
car_plate_recognize_pipeline():
d:\PDS\SparrowRV-master\bsp\bsp_app\obj/../app/main.c:254
    printf(" >> 定位成功！计算原图映射偏移 (+27像素)\r\n");
    18e8:	20000537          	lui	a0,0x20000
    18ec:	19050513          	addi	a0,a0,400 # 20000190 <_data+0x190>
    18f0:	cf5ff0ef          	jal	ra,15e4 <printf_>
send_coordinates_to_matlab():
d:\PDS\SparrowRV-master\bsp\bsp_app\obj/../app/main.c:93
    uart_send_date(UART0, 0xAA);
    18f4:	0aa00593          	li	a1,170
    18f8:	40000537          	lui	a0,0x40000
    18fc:	a0dfe0ef          	jal	ra,308 <uart_send_date>
car_plate_recognize_pipeline():
d:\PDS\SparrowRV-master\bsp\bsp_app\obj/../app/main.c:258
    int best_br_x = br_x + RAW_X_OFFSET, best_br_y = br_y;
    1900:	01b40413          	addi	s0,s0,27
d:\PDS\SparrowRV-master\bsp\bsp_app\obj/../app/main.c:255
    int best_tl_x = tl_x + RAW_X_OFFSET, best_tl_y = tl_y;
    1904:	01b90913          	addi	s2,s2,27
d:\PDS\SparrowRV-master\bsp\bsp_app\obj/../app/main.c:256
    int best_tr_x = tr_x + RAW_X_OFFSET, best_tr_y = tr_y;
    1908:	01ba8a93          	addi	s5,s5,27 # 2000001b <_data+0x1b>
d:\PDS\SparrowRV-master\bsp\bsp_app\obj/../app/main.c:257
    int best_bl_x = bl_x + RAW_X_OFFSET, best_bl_y = bl_y;
    190c:	01ba0a13          	addi	s4,s4,27
send_coordinates_to_matlab():
d:\PDS\SparrowRV-master\bsp\bsp_app\obj/../app/main.c:94
    uart_send_date(UART0, 0x55);
    1910:	05500593          	li	a1,85
    1914:	40000537          	lui	a0,0x40000
    1918:	9f1fe0ef          	jal	ra,308 <uart_send_date>
d:\PDS\SparrowRV-master\bsp\bsp_app\obj/../app/main.c:97
    int coords[8] = {tl_x, tl_y, tr_x, tr_y, bl_x, bl_y, br_x, br_y};
    191c:	07010c13          	addi	s8,sp,112
    1920:	07612a23          	sw	s6,116(sp)
    1924:	08912223          	sw	s1,132(sp)
    1928:	09312623          	sw	s3,140(sp)
d:\PDS\SparrowRV-master\bsp\bsp_app\obj/../app/main.c:103
        for(volatile int nop=0; nop<50; nop++); 
    192c:	01b12423          	sw	s11,8(sp)
d:\PDS\SparrowRV-master\bsp\bsp_app\obj/../app/main.c:97
    int coords[8] = {tl_x, tl_y, tr_x, tr_y, bl_x, bl_y, br_x, br_y};
    1930:	07212823          	sw	s2,112(sp)
d:\PDS\SparrowRV-master\bsp\bsp_app\obj/../app/main.c:103
        for(volatile int nop=0; nop<50; nop++); 
    1934:	000c8d93          	mv	s11,s9
d:\PDS\SparrowRV-master\bsp\bsp_app\obj/../app/main.c:97
    int coords[8] = {tl_x, tl_y, tr_x, tr_y, bl_x, bl_y, br_x, br_y};
    1938:	07512c23          	sw	s5,120(sp)
d:\PDS\SparrowRV-master\bsp\bsp_app\obj/../app/main.c:103
        for(volatile int nop=0; nop<50; nop++); 
    193c:	000b0c93          	mv	s9,s6
d:\PDS\SparrowRV-master\bsp\bsp_app\obj/../app/main.c:97
    int coords[8] = {tl_x, tl_y, tr_x, tr_y, bl_x, bl_y, br_x, br_y};
    1940:	07712e23          	sw	s7,124(sp)
d:\PDS\SparrowRV-master\bsp\bsp_app\obj/../app/main.c:103
        for(volatile int nop=0; nop<50; nop++); 
    1944:	00098b13          	mv	s6,s3
d:\PDS\SparrowRV-master\bsp\bsp_app\obj/../app/main.c:97
    int coords[8] = {tl_x, tl_y, tr_x, tr_y, bl_x, bl_y, br_x, br_y};
    1948:	09412023          	sw	s4,128(sp)
d:\PDS\SparrowRV-master\bsp\bsp_app\obj/../app/main.c:103
        for(volatile int nop=0; nop<50; nop++); 
    194c:	00048993          	mv	s3,s1
d:\PDS\SparrowRV-master\bsp\bsp_app\obj/../app/main.c:97
    int coords[8] = {tl_x, tl_y, tr_x, tr_y, bl_x, bl_y, br_x, br_y};
    1950:	08812423          	sw	s0,136(sp)
d:\PDS\SparrowRV-master\bsp\bsp_app\obj/../app/main.c:103
        for(volatile int nop=0; nop<50; nop++); 
    1954:	03100d13          	li	s10,49
    1958:	00040493          	mv	s1,s0
d:\PDS\SparrowRV-master\bsp\bsp_app\obj/../app/main.c:100
        uart_send_date(UART0, (coords[i] >> 8) & 0xFF);
    195c:	000c2403          	lw	s0,0(s8)
    1960:	40000537          	lui	a0,0x40000
    1964:	40845593          	srai	a1,s0,0x8
    1968:	0ff5f593          	zext.b	a1,a1
    196c:	99dfe0ef          	jal	ra,308 <uart_send_date>
d:\PDS\SparrowRV-master\bsp\bsp_app\obj/../app/main.c:101
        uart_send_date(UART0, coords[i] & 0xFF);
    1970:	0ff47593          	zext.b	a1,s0
    1974:	40000537          	lui	a0,0x40000
    1978:	991fe0ef          	jal	ra,308 <uart_send_date>
d:\PDS\SparrowRV-master\bsp\bsp_app\obj/../app/main.c:103
        for(volatile int nop=0; nop<50; nop++); 
    197c:	06012423          	sw	zero,104(sp)
    1980:	06812783          	lw	a5,104(sp)
    1984:	00fd4c63          	blt	s10,a5,199c <car_plate_recognize_pipeline+0x368>
    1988:	06812783          	lw	a5,104(sp)
    198c:	00178793          	addi	a5,a5,1
    1990:	06f12423          	sw	a5,104(sp)
    1994:	06812783          	lw	a5,104(sp)
    1998:	fefd58e3          	bge	s10,a5,1988 <car_plate_recognize_pipeline+0x354>
d:\PDS\SparrowRV-master\bsp\bsp_app\obj/../app/main.c:99
    for(int i = 0; i < 8; i++) {
    199c:	004c0c13          	addi	s8,s8,4
    19a0:	09010793          	addi	a5,sp,144
    19a4:	fb879ce3          	bne	a5,s8,195c <car_plate_recognize_pipeline+0x328>
d:\PDS\SparrowRV-master\bsp\bsp_app\obj/../app/main.c:106
    printf("\r\n[串口] 已同步坐标数据至上位机。\r\n");
    19a8:	20000537          	lui	a0,0x20000
    19ac:	04450513          	addi	a0,a0,68 # 20000044 <_data+0x44>
    19b0:	00048413          	mv	s0,s1
    19b4:	00098493          	mv	s1,s3
    19b8:	000b0993          	mv	s3,s6
    19bc:	000c8b13          	mv	s6,s9
    19c0:	000d8c93          	mv	s9,s11
    19c4:	00812d83          	lw	s11,8(sp)
    19c8:	c1dff0ef          	jal	ra,15e4 <printf_>
car_plate_recognize_pipeline():
d:\PDS\SparrowRV-master\bsp\bsp_app\obj/../app/main.c:264
    printf("【真实车牌原图映射四角坐标】:\r\n");
    19cc:	20000537          	lui	a0,0x20000
    19d0:	1cc50513          	addi	a0,a0,460 # 200001cc <_data+0x1cc>
    19d4:	c11ff0ef          	jal	ra,15e4 <printf_>
d:\PDS\SparrowRV-master\bsp\bsp_app\obj/../app/main.c:265
    printf(" 左上角: (%4d , %4d)     右上角: (%4d , %4d)\r\n", best_tl_x, best_tl_y, best_tr_x, best_tr_y);
    19d8:	20000537          	lui	a0,0x20000
    19dc:	000b8713          	mv	a4,s7
    19e0:	000a8693          	mv	a3,s5
    19e4:	000b0613          	mv	a2,s6
    19e8:	00090593          	mv	a1,s2
    19ec:	1fc50513          	addi	a0,a0,508 # 200001fc <_data+0x1fc>
    19f0:	bf5ff0ef          	jal	ra,15e4 <printf_>
d:\PDS\SparrowRV-master\bsp\bsp_app\obj/../app/main.c:266
    printf(" 左下角: (%4d , %4d)     右下角: (%4d , %4d)\r\n\r\n", best_bl_x, best_bl_y, best_br_x, best_br_y);
    19f4:	20000537          	lui	a0,0x20000
    19f8:	00098713          	mv	a4,s3
    19fc:	00040693          	mv	a3,s0
    1a00:	00048613          	mv	a2,s1
    1a04:	000a0593          	mv	a1,s4
    1a08:	23450513          	addi	a0,a0,564 # 20000234 <_data+0x234>
    1a0c:	bd9ff0ef          	jal	ra,15e4 <printf_>
set_led5_status():
d:\PDS\SparrowRV-master\bsp\bsp_app\obj/../app/main.c:551
    uint32_t dout = fpioa_nio_dout_read(); 
    1a10:	839fe0ef          	jal	ra,248 <fpioa_nio_dout_read>
d:\PDS\SparrowRV-master\bsp\bsp_app\obj/../app/main.c:552
    if (on) dout |= NIO_16; else dout &= ~NIO_16; 
    1a14:	000107b7          	lui	a5,0x10
d:\PDS\SparrowRV-master\bsp\bsp_app\obj/../app/main.c:553
    fpioa_nio_dout_write(dout); 
    1a18:	00f56533          	or	a0,a0,a5
    1a1c:	821fe0ef          	jal	ra,23c <fpioa_nio_dout_write>
set_led6_status():
d:\PDS\SparrowRV-master\bsp\bsp_app\obj/../app/main.c:545
    uint32_t dout = fpioa_nio_dout_read(); 
    1a20:	829fe0ef          	jal	ra,248 <fpioa_nio_dout_read>
d:\PDS\SparrowRV-master\bsp\bsp_app\obj/../app/main.c:546
    if (on) dout |= NIO_14; else dout &= ~NIO_14;
    1a24:	000047b7          	lui	a5,0x4
d:\PDS\SparrowRV-master\bsp\bsp_app\obj/../app/main.c:547
    fpioa_nio_dout_write(dout); 
    1a28:	00f56533          	or	a0,a0,a5
    1a2c:	811fe0ef          	jal	ra,23c <fpioa_nio_dout_write>
car_plate_recognize_pipeline():
d:\PDS\SparrowRV-master\bsp\bsp_app\obj/../app/main.c:273
    printf("[阶段 2/6] 从 DDR 中拷贝真实原图 ROI...\r\n");
    1a30:	20000537          	lui	a0,0x20000
    1a34:	26c50513          	addi	a0,a0,620 # 2000026c <_data+0x26c>
    1a38:	badff0ef          	jal	ra,15e4 <printf_>
get_min():
d:\PDS\SparrowRV-master\bsp\bsp_app\obj/../app/main.c:52
int get_min(int a, int b) { return a < b ? a : b; }
    1a3c:	00090793          	mv	a5,s2
    1a40:	412a46e3          	blt	s4,s2,264c <car_plate_recognize_pipeline+0x1018>
car_plate_recognize_pipeline():
d:\PDS\SparrowRV-master\bsp\bsp_app\obj/../app/main.c:279
    int start_y = get_max(0, best_y_top - 5);
    1a44:	ffbc8c93          	addi	s9,s9,-5
get_max():
d:\PDS\SparrowRV-master\bsp\bsp_app\obj/../app/main.c:51
int get_max(int a, int b) { return a > b ? a : b; }
    1a48:	fffcc713          	not	a4,s9
    1a4c:	41f75713          	srai	a4,a4,0x1f
car_plate_recognize_pipeline():
d:\PDS\SparrowRV-master\bsp\bsp_app\obj/../app/main.c:278
    int start_x = get_max(0, best_x_left - 5);
    1a50:	ffb78c13          	addi	s8,a5,-5 # 3ffb <_data_lma+0x2ab>
get_max():
d:\PDS\SparrowRV-master\bsp\bsp_app\obj/../app/main.c:51
int get_max(int a, int b) { return a > b ? a : b; }
    1a54:	00ecfcb3          	and	s9,s9,a4
    1a58:	000a8d13          	mv	s10,s5
    1a5c:	408acee3          	blt	s5,s0,2678 <car_plate_recognize_pipeline+0x1044>
car_plate_recognize_pipeline():
d:\PDS\SparrowRV-master\bsp\bsp_app\obj/../app/main.c:280
    int end_x = get_min(RAW_IMG_W - 1, best_x_right + 5);
    1a60:	005d0d13          	addi	s10,s10,5
get_min():
d:\PDS\SparrowRV-master\bsp\bsp_app\obj/../app/main.c:52
int get_min(int a, int b) { return a < b ? a : b; }
    1a64:	4ff00713          	li	a4,1279
    1a68:	3ba742e3          	blt	a4,s10,260c <car_plate_recognize_pipeline+0xfd8>
car_plate_recognize_pipeline():
d:\PDS\SparrowRV-master\bsp\bsp_app\obj/../app/main.c:281
    int end_y = get_min(IMG_H - 1, best_y_bot + 5);
    1a6c:	005d8713          	addi	a4,s11,5
    1a70:	00070693          	mv	a3,a4
    1a74:	00e12423          	sw	a4,8(sp)
get_min():
d:\PDS\SparrowRV-master\bsp\bsp_app\obj/../app/main.c:52
int get_min(int a, int b) { return a < b ? a : b; }
    1a78:	2cf00713          	li	a4,719
    1a7c:	38d744e3          	blt	a4,a3,2604 <car_plate_recognize_pipeline+0xfd0>
car_plate_recognize_pipeline():
d:\PDS\SparrowRV-master\bsp\bsp_app\obj/../app/main.c:283
    int src_roi_h = end_y - start_y + 1;
    1a80:	00812683          	lw	a3,8(sp)
d:\PDS\SparrowRV-master\bsp\bsp_app\obj/../app/main.c:282
    int src_roi_w = end_x - start_x + 1;
    1a84:	418d0733          	sub	a4,s10,s8
    1a88:	00170713          	addi	a4,a4,1
d:\PDS\SparrowRV-master\bsp\bsp_app\obj/../app/main.c:283
    int src_roi_h = end_y - start_y + 1;
    1a8c:	41968633          	sub	a2,a3,s9
d:\PDS\SparrowRV-master\bsp\bsp_app\obj/../app/main.c:282
    int src_roi_w = end_x - start_x + 1;
    1a90:	00e12823          	sw	a4,16(sp)
d:\PDS\SparrowRV-master\bsp\bsp_app\obj/../app/main.c:285
    for (int y = 0; y < src_roi_h; y++) {
    1a94:	0a064663          	bltz	a2,1b40 <car_plate_recognize_pipeline+0x50c>
    1a98:	00070513          	mv	a0,a4
    1a9c:	0ae05263          	blez	a4,1b40 <car_plate_recognize_pipeline+0x50c>
    1aa0:	002c9713          	slli	a4,s9,0x2
    1aa4:	001c8693          	addi	a3,s9,1
    1aa8:	00c686b3          	add	a3,a3,a2
    1aac:	01970733          	add	a4,a4,s9
    1ab0:	00871593          	slli	a1,a4,0x8
    1ab4:	50000613          	li	a2,1280
    1ab8:	00269713          	slli	a4,a3,0x2
    1abc:	00d70733          	add	a4,a4,a3
    1ac0:	40a60633          	sub	a2,a2,a0
    1ac4:	00b787b3          	add	a5,a5,a1
d:\PDS\SparrowRV-master\bsp\bsp_app\obj/../app/main.c:290
            roi_buf[y * src_roi_w + x] = raw_img[raw_row_offset + src_x];
    1ac8:	02e006b7          	lui	a3,0x2e00
    1acc:	00151893          	slli	a7,a0,0x1
    1ad0:	00161613          	slli	a2,a2,0x1
    1ad4:	00179793          	slli	a5,a5,0x1
    1ad8:	00871713          	slli	a4,a4,0x8
d:\PDS\SparrowRV-master\bsp\bsp_app\obj/../app/main.c:285
    for (int y = 0; y < src_roi_h; y++) {
    1adc:	a1200837          	lui	a6,0xa1200
d:\PDS\SparrowRV-master\bsp\bsp_app\obj/../app/main.c:290
            roi_buf[y * src_roi_w + x] = raw_img[raw_row_offset + src_x];
    1ae0:	ff668313          	addi	t1,a3,-10 # 2dffff6 <_app_prog_size+0x2dbfff6>
d:\PDS\SparrowRV-master\bsp\bsp_app\obj/../app/main.c:291
            for(volatile int nop=0; nop<2; nop++); 
    1ae4:	00100e13          	li	t3,1
d:\PDS\SparrowRV-master\bsp\bsp_app\obj/../app/main.c:288
        for (int x = 0; x < src_roi_w; x++) {
    1ae8:	01088f33          	add	t5,a7,a6
d:\PDS\SparrowRV-master\bsp\bsp_app\obj/../app/main.c:285
    for (int y = 0; y < src_roi_h; y++) {
    1aec:	00080693          	mv	a3,a6
d:\PDS\SparrowRV-master\bsp\bsp_app\obj/../app/main.c:290
            roi_buf[y * src_roi_w + x] = raw_img[raw_row_offset + src_x];
    1af0:	00678eb3          	add	t4,a5,t1
    1af4:	00de8533          	add	a0,t4,a3
    1af8:	00055503          	lhu	a0,0(a0)
    1afc:	01051513          	slli	a0,a0,0x10
    1b00:	01055513          	srli	a0,a0,0x10
    1b04:	00a69023          	sh	a0,0(a3)
d:\PDS\SparrowRV-master\bsp\bsp_app\obj/../app/main.c:291
            for(volatile int nop=0; nop<2; nop++); 
    1b08:	02012223          	sw	zero,36(sp)
    1b0c:	02412503          	lw	a0,36(sp)
    1b10:	00ae4c63          	blt	t3,a0,1b28 <car_plate_recognize_pipeline+0x4f4>
d:\PDS\SparrowRV-master\bsp\bsp_app\obj/../app/main.c:291 (discriminator 3)
    1b14:	02412503          	lw	a0,36(sp)
    1b18:	00150513          	addi	a0,a0,1
    1b1c:	02a12223          	sw	a0,36(sp)
    1b20:	02412503          	lw	a0,36(sp)
    1b24:	feae58e3          	bge	t3,a0,1b14 <car_plate_recognize_pipeline+0x4e0>
d:\PDS\SparrowRV-master\bsp\bsp_app\obj/../app/main.c:288
        for (int x = 0; x < src_roi_w; x++) {
    1b28:	00268693          	addi	a3,a3,2
    1b2c:	fcdf14e3          	bne	t5,a3,1af4 <car_plate_recognize_pipeline+0x4c0>
d:\PDS\SparrowRV-master\bsp\bsp_app\obj/../app/main.c:285
    for (int y = 0; y < src_roi_h; y++) {
    1b30:	50058593          	addi	a1,a1,1280
    1b34:	01180833          	add	a6,a6,a7
    1b38:	00c787b3          	add	a5,a5,a2
    1b3c:	fab716e3          	bne	a4,a1,1ae8 <car_plate_recognize_pipeline+0x4b4>
d:\PDS\SparrowRV-master\bsp\bsp_app\obj/../app/main.c:298
    printf("[阶段 3/6] 正在拉伸像素，执行 OBB 透视畸变校正...\r\n");
    1b40:	20000537          	lui	a0,0x20000
    1b44:	2a050513          	addi	a0,a0,672 # 200002a0 <_data+0x2a0>
    1b48:	a9dff0ef          	jal	ra,15e4 <printf_>
d:\PDS\SparrowRV-master\bsp\bsp_app\obj/../app/main.c:300
    for (int y = 0; y < TARGET_H; y++) {
    1b4c:	0000f7b7          	lui	a5,0xf
d:\PDS\SparrowRV-master\bsp\bsp_app\obj/../app/main.c:298
    printf("[阶段 3/6] 正在拉伸像素，执行 OBB 透视畸变校正...\r\n");
    1b50:	a1900537          	lui	a0,0xa1900
d:\PDS\SparrowRV-master\bsp\bsp_app\obj/../app/main.c:302
        for (int x = 0; x < TARGET_W; x++) {
    1b54:	0001c0b7          	lui	ra,0x1c
d:\PDS\SparrowRV-master\bsp\bsp_app\obj/../app/main.c:300
    for (int y = 0; y < TARGET_H; y++) {
    1b58:	0a078793          	addi	a5,a5,160 # f0a0 <__stack_size+0xb0a0>
d:\PDS\SparrowRV-master\bsp\bsp_app\obj/../app/main.c:298
    printf("[阶段 3/6] 正在拉伸像素，执行 OBB 透视畸变校正...\r\n");
    1b5c:	00000293          	li	t0,0
    1b60:	00000f93          	li	t6,0
d:\PDS\SparrowRV-master\bsp\bsp_app\obj/../app/main.c:301
        int fy = safe_div(y * FIXED_SCALE, TARGET_H - 1), inv_fy = FIXED_SCALE - fy;
    1b64:	10000d93          	li	s11,256
safe_div():
d:\PDS\SparrowRV-master\bsp\bsp_app\obj/../app/main.c:58
    while (num >= den) {
    1b68:	1b600613          	li	a2,438
d:\PDS\SparrowRV-master\bsp\bsp_app\obj/../app/main.c:61
        while (num >= (temp << 1) && (temp << 1) > temp) {
    1b6c:	36d00593          	li	a1,877
car_plate_recognize_pipeline():
d:\PDS\SparrowRV-master\bsp\bsp_app\obj/../app/main.c:315
            for(volatile int nop=0; nop<2; nop++); 
    1b70:	00100693          	li	a3,1
d:\PDS\SparrowRV-master\bsp\bsp_app\obj/../app/main.c:302
        for (int x = 0; x < TARGET_W; x++) {
    1b74:	80008093          	addi	ra,ra,-2048 # 1b800 <__stack_size+0x17800>
d:\PDS\SparrowRV-master\bsp\bsp_app\obj/../app/main.c:300
    for (int y = 0; y < TARGET_H; y++) {
    1b78:	00f12a23          	sw	a5,20(sp)
    1b7c:	00912623          	sw	s1,12(sp)
    1b80:	00050393          	mv	t2,a0
safe_div():
d:\PDS\SparrowRV-master\bsp\bsp_app\obj/../app/main.c:58
    while (num >= den) {
    1b84:	08a00793          	li	a5,138
car_plate_recognize_pipeline():
d:\PDS\SparrowRV-master\bsp\bsp_app\obj/../app/main.c:301
        int fy = safe_div(y * FIXED_SCALE, TARGET_H - 1), inv_fy = FIXED_SCALE - fy;
    1b88:	000f8813          	mv	a6,t6
safe_div():
d:\PDS\SparrowRV-master\bsp\bsp_app\obj/../app/main.c:57
    int res = 0;
    1b8c:	00000e93          	li	t4,0
d:\PDS\SparrowRV-master\bsp\bsp_app\obj/../app/main.c:58
    while (num >= den) {
    1b90:	10000f13          	li	t5,256
    1b94:	05f7f463          	bgeu	a5,t6,1bdc <car_plate_recognize_pipeline+0x5a8>
d:\PDS\SparrowRV-master\bsp\bsp_app\obj/../app/main.c:61
        while (num >= (temp << 1) && (temp << 1) > temp) {
    1b98:	11500793          	li	a5,277
    1b9c:	7f07d863          	bge	a5,a6,238c <car_plate_recognize_pipeline+0xd58>
    1ba0:	01700713          	li	a4,23
    1ba4:	11600793          	li	a5,278
d:\PDS\SparrowRV-master\bsp\bsp_app\obj/../app/main.c:60
        int multiple = 1;
    1ba8:	00100513          	li	a0,1
    1bac:	0080006f          	j	1bb4 <car_plate_recognize_pipeline+0x580>
d:\PDS\SparrowRV-master\bsp\bsp_app\obj/../app/main.c:61
        while (num >= (temp << 1) && (temp << 1) > temp) {
    1bb0:	00070c63          	beqz	a4,1bc8 <car_plate_recognize_pipeline+0x594>
d:\PDS\SparrowRV-master\bsp\bsp_app\obj/../app/main.c:63
            multiple <<= 1;
    1bb4:	00078893          	mv	a7,a5
d:\PDS\SparrowRV-master\bsp\bsp_app\obj/../app/main.c:61
        while (num >= (temp << 1) && (temp << 1) > temp) {
    1bb8:	00179793          	slli	a5,a5,0x1
    1bbc:	fff70713          	addi	a4,a4,-1
d:\PDS\SparrowRV-master\bsp\bsp_app\obj/../app/main.c:63
            multiple <<= 1;
    1bc0:	00151513          	slli	a0,a0,0x1
d:\PDS\SparrowRV-master\bsp\bsp_app\obj/../app/main.c:61
        while (num >= (temp << 1) && (temp << 1) > temp) {
    1bc4:	fef856e3          	bge	a6,a5,1bb0 <car_plate_recognize_pipeline+0x57c>
d:\PDS\SparrowRV-master\bsp\bsp_app\obj/../app/main.c:65
        num -= temp;
    1bc8:	41180833          	sub	a6,a6,a7
d:\PDS\SparrowRV-master\bsp\bsp_app\obj/../app/main.c:58
    while (num >= den) {
    1bcc:	08a00793          	li	a5,138
d:\PDS\SparrowRV-master\bsp\bsp_app\obj/../app/main.c:66
        res += multiple;
    1bd0:	00ae8eb3          	add	t4,t4,a0
d:\PDS\SparrowRV-master\bsp\bsp_app\obj/../app/main.c:58
    while (num >= den) {
    1bd4:	fd07c2e3          	blt	a5,a6,1b98 <car_plate_recognize_pipeline+0x564>
car_plate_recognize_pipeline():
d:\PDS\SparrowRV-master\bsp\bsp_app\obj/../app/main.c:301
        int fy = safe_div(y * FIXED_SCALE, TARGET_H - 1), inv_fy = FIXED_SCALE - fy;
    1bd8:	41dd8f33          	sub	t5,s11,t4
safe_div():
d:\PDS\SparrowRV-master\bsp\bsp_app\obj/../app/main.c:57
    int res = 0;
    1bdc:	00038e13          	mv	t3,t2
    1be0:	00000893          	li	a7,0
    1be4:	00712c23          	sw	t2,24(sp)
    1be8:	00512e23          	sw	t0,28(sp)
car_plate_recognize_pipeline():
d:\PDS\SparrowRV-master\bsp\bsp_app\obj/../app/main.c:303
            int fx = safe_div(x * FIXED_SCALE, TARGET_W - 1), inv_fx = FIXED_SCALE - fx;
    1bec:	00088813          	mv	a6,a7
safe_div():
d:\PDS\SparrowRV-master\bsp\bsp_app\obj/../app/main.c:57
    int res = 0;
    1bf0:	00000313          	li	t1,0
d:\PDS\SparrowRV-master\bsp\bsp_app\obj/../app/main.c:58
    while (num >= den) {
    1bf4:	77167a63          	bgeu	a2,a7,2368 <car_plate_recognize_pipeline+0xd34>
d:\PDS\SparrowRV-master\bsp\bsp_app\obj/../app/main.c:61
        while (num >= (temp << 1) && (temp << 1) > temp) {
    1bf8:	7905d663          	bge	a1,a6,2384 <car_plate_recognize_pipeline+0xd50>
    1bfc:	01600713          	li	a4,22
    1c00:	36e00793          	li	a5,878
d:\PDS\SparrowRV-master\bsp\bsp_app\obj/../app/main.c:60
        int multiple = 1;
    1c04:	00100513          	li	a0,1
    1c08:	0080006f          	j	1c10 <car_plate_recognize_pipeline+0x5dc>
d:\PDS\SparrowRV-master\bsp\bsp_app\obj/../app/main.c:61
        while (num >= (temp << 1) && (temp << 1) > temp) {
    1c0c:	00070c63          	beqz	a4,1c24 <car_plate_recognize_pipeline+0x5f0>
d:\PDS\SparrowRV-master\bsp\bsp_app\obj/../app/main.c:63
            multiple <<= 1;
    1c10:	00078293          	mv	t0,a5
d:\PDS\SparrowRV-master\bsp\bsp_app\obj/../app/main.c:61
        while (num >= (temp << 1) && (temp << 1) > temp) {
    1c14:	00179793          	slli	a5,a5,0x1
    1c18:	fff70713          	addi	a4,a4,-1
d:\PDS\SparrowRV-master\bsp\bsp_app\obj/../app/main.c:63
            multiple <<= 1;
    1c1c:	00151513          	slli	a0,a0,0x1
d:\PDS\SparrowRV-master\bsp\bsp_app\obj/../app/main.c:61
        while (num >= (temp << 1) && (temp << 1) > temp) {
    1c20:	fef856e3          	bge	a6,a5,1c0c <car_plate_recognize_pipeline+0x5d8>
d:\PDS\SparrowRV-master\bsp\bsp_app\obj/../app/main.c:65
        num -= temp;
    1c24:	40580833          	sub	a6,a6,t0
d:\PDS\SparrowRV-master\bsp\bsp_app\obj/../app/main.c:66
        res += multiple;
    1c28:	00a30333          	add	t1,t1,a0
d:\PDS\SparrowRV-master\bsp\bsp_app\obj/../app/main.c:58
    while (num >= den) {
    1c2c:	fd0646e3          	blt	a2,a6,1bf8 <car_plate_recognize_pipeline+0x5c4>
car_plate_recognize_pipeline():
d:\PDS\SparrowRV-master\bsp\bsp_app\obj/../app/main.c:305
            int src_x = (((inv_fx * inv_fy) >> FIXED_SHIFT) * best_tl_x + ((fx * inv_fy) >> FIXED_SHIFT) * best_tr_x +
    1c30:	03e30733          	mul	a4,t1,t5
d:\PDS\SparrowRV-master\bsp\bsp_app\obj/../app/main.c:303
            int fx = safe_div(x * FIXED_SCALE, TARGET_W - 1), inv_fx = FIXED_SCALE - fx;
    1c34:	406d8533          	sub	a0,s11,t1
d:\PDS\SparrowRV-master\bsp\bsp_app\obj/../app/main.c:306
                         ((fx * fy) >> FIXED_SHIFT) * best_br_x + ((inv_fx * fy) >> FIXED_SHIFT) * best_bl_x) >> FIXED_SHIFT;
    1c38:	03d307b3          	mul	a5,t1,t4
d:\PDS\SparrowRV-master\bsp\bsp_app\obj/../app/main.c:305
            int src_x = (((inv_fx * inv_fy) >> FIXED_SHIFT) * best_tl_x + ((fx * inv_fy) >> FIXED_SHIFT) * best_tr_x +
    1c3c:	40875713          	srai	a4,a4,0x8
d:\PDS\SparrowRV-master\bsp\bsp_app\obj/../app/main.c:306
                         ((fx * fy) >> FIXED_SHIFT) * best_br_x + ((inv_fx * fy) >> FIXED_SHIFT) * best_bl_x) >> FIXED_SHIFT;
    1c40:	4087d793          	srai	a5,a5,0x8
    1c44:	02f403b3          	mul	t2,s0,a5
d:\PDS\SparrowRV-master\bsp\bsp_app\obj/../app/main.c:305
            int src_x = (((inv_fx * inv_fy) >> FIXED_SHIFT) * best_tl_x + ((fx * inv_fy) >> FIXED_SHIFT) * best_tr_x +
    1c48:	02ea84b3          	mul	s1,s5,a4
d:\PDS\SparrowRV-master\bsp\bsp_app\obj/../app/main.c:307
            int src_y = (((inv_fx * inv_fy) >> FIXED_SHIFT) * best_tl_y + ((fx * inv_fy) >> FIXED_SHIFT) * best_tr_y +
    1c4c:	02eb8333          	mul	t1,s7,a4
d:\PDS\SparrowRV-master\bsp\bsp_app\obj/../app/main.c:308
                         ((fx * fy) >> FIXED_SHIFT) * best_br_y + ((inv_fx * fy) >> FIXED_SHIFT) * best_bl_y) >> FIXED_SHIFT;
    1c50:	02f987b3          	mul	a5,s3,a5
d:\PDS\SparrowRV-master\bsp\bsp_app\obj/../app/main.c:305
            int src_x = (((inv_fx * inv_fy) >> FIXED_SHIFT) * best_tl_x + ((fx * inv_fy) >> FIXED_SHIFT) * best_tr_x +
    1c54:	02af0833          	mul	a6,t5,a0
d:\PDS\SparrowRV-master\bsp\bsp_app\obj/../app/main.c:306
                         ((fx * fy) >> FIXED_SHIFT) * best_br_x + ((inv_fx * fy) >> FIXED_SHIFT) * best_bl_x) >> FIXED_SHIFT;
    1c58:	02ae8533          	mul	a0,t4,a0
d:\PDS\SparrowRV-master\bsp\bsp_app\obj/../app/main.c:305
            int src_x = (((inv_fx * inv_fy) >> FIXED_SHIFT) * best_tl_x + ((fx * inv_fy) >> FIXED_SHIFT) * best_tr_x +
    1c5c:	40885813          	srai	a6,a6,0x8
    1c60:	03280733          	mul	a4,a6,s2
d:\PDS\SparrowRV-master\bsp\bsp_app\obj/../app/main.c:306
                         ((fx * fy) >> FIXED_SHIFT) * best_br_x + ((inv_fx * fy) >> FIXED_SHIFT) * best_bl_x) >> FIXED_SHIFT;
    1c64:	40855513          	srai	a0,a0,0x8
    1c68:	034502b3          	mul	t0,a0,s4
d:\PDS\SparrowRV-master\bsp\bsp_app\obj/../app/main.c:305
            int src_x = (((inv_fx * inv_fy) >> FIXED_SHIFT) * best_tl_x + ((fx * inv_fy) >> FIXED_SHIFT) * best_tr_x +
    1c6c:	00970733          	add	a4,a4,s1
    1c70:	00770733          	add	a4,a4,t2
d:\PDS\SparrowRV-master\bsp\bsp_app\obj/../app/main.c:306
                         ((fx * fy) >> FIXED_SHIFT) * best_br_x + ((inv_fx * fy) >> FIXED_SHIFT) * best_bl_x) >> FIXED_SHIFT;
    1c74:	00570733          	add	a4,a4,t0
d:\PDS\SparrowRV-master\bsp\bsp_app\obj/../app/main.c:305
            int src_x = (((inv_fx * inv_fy) >> FIXED_SHIFT) * best_tl_x + ((fx * inv_fy) >> FIXED_SHIFT) * best_tr_x +
    1c78:	40875713          	srai	a4,a4,0x8
d:\PDS\SparrowRV-master\bsp\bsp_app\obj/../app/main.c:310
            if (src_x >= start_x && src_x <= end_x && src_y >= start_y && src_y <= end_y) {
    1c7c:	71874063          	blt	a4,s8,237c <car_plate_recognize_pipeline+0xd48>
d:\PDS\SparrowRV-master\bsp\bsp_app\obj/../app/main.c:310 (discriminator 1)
    1c80:	6eed4e63          	blt	s10,a4,237c <car_plate_recognize_pipeline+0xd48>
d:\PDS\SparrowRV-master\bsp\bsp_app\obj/../app/main.c:308 (discriminator 2)
                         ((fx * fy) >> FIXED_SHIFT) * best_br_y + ((inv_fx * fy) >> FIXED_SHIFT) * best_bl_y) >> FIXED_SHIFT;
    1c84:	00c12283          	lw	t0,12(sp)
d:\PDS\SparrowRV-master\bsp\bsp_app\obj/../app/main.c:307 (discriminator 2)
            int src_y = (((inv_fx * inv_fy) >> FIXED_SHIFT) * best_tl_y + ((fx * inv_fy) >> FIXED_SHIFT) * best_tr_y +
    1c88:	03680833          	mul	a6,a6,s6
d:\PDS\SparrowRV-master\bsp\bsp_app\obj/../app/main.c:308 (discriminator 2)
                         ((fx * fy) >> FIXED_SHIFT) * best_br_y + ((inv_fx * fy) >> FIXED_SHIFT) * best_bl_y) >> FIXED_SHIFT;
    1c8c:	02550533          	mul	a0,a0,t0
d:\PDS\SparrowRV-master\bsp\bsp_app\obj/../app/main.c:307 (discriminator 2)
            int src_y = (((inv_fx * inv_fy) >> FIXED_SHIFT) * best_tl_y + ((fx * inv_fy) >> FIXED_SHIFT) * best_tr_y +
    1c90:	00680833          	add	a6,a6,t1
    1c94:	00f807b3          	add	a5,a6,a5
d:\PDS\SparrowRV-master\bsp\bsp_app\obj/../app/main.c:308 (discriminator 2)
                         ((fx * fy) >> FIXED_SHIFT) * best_br_y + ((inv_fx * fy) >> FIXED_SHIFT) * best_bl_y) >> FIXED_SHIFT;
    1c98:	00a787b3          	add	a5,a5,a0
d:\PDS\SparrowRV-master\bsp\bsp_app\obj/../app/main.c:307 (discriminator 2)
            int src_y = (((inv_fx * inv_fy) >> FIXED_SHIFT) * best_tl_y + ((fx * inv_fy) >> FIXED_SHIFT) * best_tr_y +
    1c9c:	4087d793          	srai	a5,a5,0x8
d:\PDS\SparrowRV-master\bsp\bsp_app\obj/../app/main.c:310 (discriminator 2)
            if (src_x >= start_x && src_x <= end_x && src_y >= start_y && src_y <= end_y) {
    1ca0:	6d97ce63          	blt	a5,s9,237c <car_plate_recognize_pipeline+0xd48>
d:\PDS\SparrowRV-master\bsp\bsp_app\obj/../app/main.c:310 (discriminator 3)
    1ca4:	00812503          	lw	a0,8(sp)
    1ca8:	6cf54a63          	blt	a0,a5,237c <car_plate_recognize_pipeline+0xd48>
d:\PDS\SparrowRV-master\bsp\bsp_app\obj/../app/main.c:311
                dst_img[y * TARGET_W + x] = roi_buf[(src_y - start_y) * src_roi_w + (src_x - start_x)];
    1cac:	01012503          	lw	a0,16(sp)
    1cb0:	419787b3          	sub	a5,a5,s9
    1cb4:	41870733          	sub	a4,a4,s8
    1cb8:	02a787b3          	mul	a5,a5,a0
    1cbc:	00e787b3          	add	a5,a5,a4
    1cc0:	00179793          	slli	a5,a5,0x1
    1cc4:	a1200737          	lui	a4,0xa1200
    1cc8:	00f707b3          	add	a5,a4,a5
    1ccc:	0007d783          	lhu	a5,0(a5)
    1cd0:	01079793          	slli	a5,a5,0x10
    1cd4:	0107d793          	srli	a5,a5,0x10
    1cd8:	00fe1023          	sh	a5,0(t3)
d:\PDS\SparrowRV-master\bsp\bsp_app\obj/../app/main.c:315
            for(volatile int nop=0; nop<2; nop++); 
    1cdc:	02012423          	sw	zero,40(sp)
    1ce0:	02812783          	lw	a5,40(sp)
    1ce4:	00f6cc63          	blt	a3,a5,1cfc <car_plate_recognize_pipeline+0x6c8>
d:\PDS\SparrowRV-master\bsp\bsp_app\obj/../app/main.c:315 (discriminator 3)
    1ce8:	02812783          	lw	a5,40(sp)
    1cec:	00178793          	addi	a5,a5,1
    1cf0:	02f12423          	sw	a5,40(sp)
    1cf4:	02812783          	lw	a5,40(sp)
    1cf8:	fef6d8e3          	bge	a3,a5,1ce8 <car_plate_recognize_pipeline+0x6b4>
d:\PDS\SparrowRV-master\bsp\bsp_app\obj/../app/main.c:302
        for (int x = 0; x < TARGET_W; x++) {
    1cfc:	10088893          	addi	a7,a7,256
    1d00:	002e0e13          	addi	t3,t3,2
    1d04:	ee1894e3          	bne	a7,ra,1bec <car_plate_recognize_pipeline+0x5b8>
    1d08:	01c12283          	lw	t0,28(sp)
d:\PDS\SparrowRV-master\bsp\bsp_app\obj/../app/main.c:300
    for (int y = 0; y < TARGET_H; y++) {
    1d0c:	01812383          	lw	t2,24(sp)
    1d10:	01412783          	lw	a5,20(sp)
    1d14:	1b828293          	addi	t0,t0,440
    1d18:	100f8f93          	addi	t6,t6,256
    1d1c:	37038393          	addi	t2,t2,880 # 8370 <__stack_size+0x4370>
    1d20:	e6f292e3          	bne	t0,a5,1b84 <car_plate_recognize_pipeline+0x550>
d:\PDS\SparrowRV-master\bsp\bsp_app\obj/../app/main.c:322
    printf("[阶段 4/6] 提取蓝牌白字 (R通道二值化映射)...\r\n");
    1d24:	20000537          	lui	a0,0x20000
    1d28:	2e850513          	addi	a0,a0,744 # 200002e8 <_data+0x2e8>
    1d2c:	8b9ff0ef          	jal	ra,15e4 <printf_>
d:\PDS\SparrowRV-master\bsp\bsp_app\obj/../app/main.c:330
                if (r > 120) out_bw |= (255 << (k * 8)); 
    1d30:	ff010e37          	lui	t3,0xff010
    1d34:	01000337          	lui	t1,0x1000
    1d38:	000108b7          	lui	a7,0x10
d:\PDS\SparrowRV-master\bsp\bsp_app\obj/../app/main.c:322
    printf("[阶段 4/6] 提取蓝牌白字 (R通道二值化映射)...\r\n");
    1d3c:	a1900537          	lui	a0,0xa1900
d:\PDS\SparrowRV-master\bsp\bsp_app\obj/../app/main.c:330
                if (r > 120) out_bw |= (255 << (k * 8)); 
    1d40:	ff000fb7          	lui	t6,0xff000
    1d44:	ffff0f37          	lui	t5,0xffff0
    1d48:	00ff0eb7          	lui	t4,0xff0
d:\PDS\SparrowRV-master\bsp\bsp_app\obj/../app/main.c:324
    for (int y = 0; y < TARGET_H; y++) {
    1d4c:	0000f4b7          	lui	s1,0xf
d:\PDS\SparrowRV-master\bsp\bsp_app\obj/../app/main.c:330
                if (r > 120) out_bw |= (255 << (k * 8)); 
    1d50:	fffe0093          	addi	ra,t3,-1 # ff00ffff <_sp+0xdefcffff>
    1d54:	fff30393          	addi	t2,t1,-1 # ffffff <_app_prog_size+0xfbffff>
    1d58:	fff88293          	addi	t0,a7,-1 # ffff <__stack_size+0xbfff>
d:\PDS\SparrowRV-master\bsp\bsp_app\obj/../app/main.c:322
    printf("[阶段 4/6] 提取蓝牌白字 (R通道二值化映射)...\r\n");
    1d5c:	00000413          	li	s0,0
    1d60:	37050513          	addi	a0,a0,880 # a1900370 <_sp+0x818c0370>
d:\PDS\SparrowRV-master\bsp\bsp_app\obj/../app/main.c:330
                if (r > 120) out_bw |= (255 << (k * 8)); 
    1d64:	07800613          	li	a2,120
    1d68:	0fff8f93          	addi	t6,t6,255 # ff0000ff <_sp+0xdefc00ff>
    1d6c:	0fff0f13          	addi	t5,t5,255 # ffff00ff <_sp+0xdffb00ff>
    1d70:	0ffe8e93          	addi	t4,t4,255 # ff00ff <_app_prog_size+0xfb00ff>
    1d74:	f00e0e13          	addi	t3,t3,-256
    1d78:	f0030313          	addi	t1,t1,-256
    1d7c:	f0088893          	addi	a7,a7,-256
d:\PDS\SparrowRV-master\bsp\bsp_app\obj/../app/main.c:324
    for (int y = 0; y < TARGET_H; y++) {
    1d80:	0a048493          	addi	s1,s1,160 # f0a0 <__stack_size+0xb0a0>
d:\PDS\SparrowRV-master\bsp\bsp_app\obj/../app/main.c:325
        for (int x = 0; x < TARGET_W; x += 4) {
    1d84:	c9050693          	addi	a3,a0,-880
safe_div():
d:\PDS\SparrowRV-master\bsp\bsp_app\obj/../app/main.c:58
    while (num >= den) {
    1d88:	00040593          	mv	a1,s0
car_plate_recognize_pipeline():
d:\PDS\SparrowRV-master\bsp\bsp_app\obj/../app/main.c:332
            bw_word[(y * TARGET_W + x) >> 2] = out_bw;
    1d8c:	a1a00837          	lui	a6,0xa1a00
d:\PDS\SparrowRV-master\bsp\bsp_app\obj/../app/main.c:333
            for(volatile int nop=0; nop<2; nop++); 
    1d90:	00100713          	li	a4,1
d:\PDS\SparrowRV-master\bsp\bsp_app\obj/../app/main.c:328
                uint16_t px = dst_img[y * TARGET_W + x + k];
    1d94:	0006d783          	lhu	a5,0(a3)
d:\PDS\SparrowRV-master\bsp\bsp_app\obj/../app/main.c:329
                int r = (px >> 11) & 0x1F; r = (r << 3) | (r >> 2);
    1d98:	00b7d793          	srli	a5,a5,0xb
    1d9c:	00379913          	slli	s2,a5,0x3
    1da0:	4027d793          	srai	a5,a5,0x2
    1da4:	00f967b3          	or	a5,s2,a5
d:\PDS\SparrowRV-master\bsp\bsp_app\obj/../app/main.c:330
                if (r > 120) out_bw |= (255 << (k * 8)); 
    1da8:	5ef64863          	blt	a2,a5,2398 <car_plate_recognize_pipeline+0xd64>
    1dac:	ff000cb7          	lui	s9,0xff000
    1db0:	ffff0c37          	lui	s8,0xffff0
    1db4:	00ff0bb7          	lui	s7,0xff0
    1db8:	000e0a93          	mv	s5,t3
    1dbc:	f0000913          	li	s2,-256
    1dc0:	00030993          	mv	s3,t1
    1dc4:	00088a13          	mv	s4,a7
d:\PDS\SparrowRV-master\bsp\bsp_app\obj/../app/main.c:326
            uint32_t out_bw = 0;
    1dc8:	00000b13          	li	s6,0
d:\PDS\SparrowRV-master\bsp\bsp_app\obj/../app/main.c:328
                uint16_t px = dst_img[y * TARGET_W + x + k];
    1dcc:	0026d783          	lhu	a5,2(a3)
d:\PDS\SparrowRV-master\bsp\bsp_app\obj/../app/main.c:329
                int r = (px >> 11) & 0x1F; r = (r << 3) | (r >> 2);
    1dd0:	00b7d793          	srli	a5,a5,0xb
    1dd4:	00379d13          	slli	s10,a5,0x3
    1dd8:	4027d793          	srai	a5,a5,0x2
    1ddc:	00fd67b3          	or	a5,s10,a5
d:\PDS\SparrowRV-master\bsp\bsp_app\obj/../app/main.c:330
                if (r > 120) out_bw |= (255 << (k * 8)); 
    1de0:	00f64a63          	blt	a2,a5,1df4 <car_plate_recognize_pipeline+0x7c0>
    1de4:	000c8a93          	mv	s5,s9
    1de8:	000c0913          	mv	s2,s8
    1dec:	000b8993          	mv	s3,s7
    1df0:	000b0a13          	mv	s4,s6
d:\PDS\SparrowRV-master\bsp\bsp_app\obj/../app/main.c:328
                uint16_t px = dst_img[y * TARGET_W + x + k];
    1df4:	0046d783          	lhu	a5,4(a3)
d:\PDS\SparrowRV-master\bsp\bsp_app\obj/../app/main.c:329
                int r = (px >> 11) & 0x1F; r = (r << 3) | (r >> 2);
    1df8:	00b7d793          	srli	a5,a5,0xb
    1dfc:	00379b13          	slli	s6,a5,0x3
    1e00:	4027d793          	srai	a5,a5,0x2
    1e04:	00fb67b3          	or	a5,s6,a5
d:\PDS\SparrowRV-master\bsp\bsp_app\obj/../app/main.c:330
                if (r > 120) out_bw |= (255 << (k * 8)); 
    1e08:	00f64663          	blt	a2,a5,1e14 <car_plate_recognize_pipeline+0x7e0>
    1e0c:	000a8913          	mv	s2,s5
    1e10:	000a0993          	mv	s3,s4
d:\PDS\SparrowRV-master\bsp\bsp_app\obj/../app/main.c:328
                uint16_t px = dst_img[y * TARGET_W + x + k];
    1e14:	0066d783          	lhu	a5,6(a3)
d:\PDS\SparrowRV-master\bsp\bsp_app\obj/../app/main.c:329
                int r = (px >> 11) & 0x1F; r = (r << 3) | (r >> 2);
    1e18:	00b7d793          	srli	a5,a5,0xb
    1e1c:	00379a13          	slli	s4,a5,0x3
    1e20:	4027d793          	srai	a5,a5,0x2
    1e24:	00fa67b3          	or	a5,s4,a5
d:\PDS\SparrowRV-master\bsp\bsp_app\obj/../app/main.c:330
                if (r > 120) out_bw |= (255 << (k * 8)); 
    1e28:	00f64463          	blt	a2,a5,1e30 <car_plate_recognize_pipeline+0x7fc>
    1e2c:	00098913          	mv	s2,s3
d:\PDS\SparrowRV-master\bsp\bsp_app\obj/../app/main.c:332
            bw_word[(y * TARGET_W + x) >> 2] = out_bw;
    1e30:	ffc5f793          	andi	a5,a1,-4
    1e34:	00f807b3          	add	a5,a6,a5
    1e38:	0127a023          	sw	s2,0(a5)
d:\PDS\SparrowRV-master\bsp\bsp_app\obj/../app/main.c:333
            for(volatile int nop=0; nop<2; nop++); 
    1e3c:	02012623          	sw	zero,44(sp)
    1e40:	02c12783          	lw	a5,44(sp)
    1e44:	00f74c63          	blt	a4,a5,1e5c <car_plate_recognize_pipeline+0x828>
d:\PDS\SparrowRV-master\bsp\bsp_app\obj/../app/main.c:333 (discriminator 3)
    1e48:	02c12783          	lw	a5,44(sp)
    1e4c:	00178793          	addi	a5,a5,1
    1e50:	02f12623          	sw	a5,44(sp)
    1e54:	02c12783          	lw	a5,44(sp)
    1e58:	fef758e3          	bge	a4,a5,1e48 <car_plate_recognize_pipeline+0x814>
d:\PDS\SparrowRV-master\bsp\bsp_app\obj/../app/main.c:325
        for (int x = 0; x < TARGET_W; x += 4) {
    1e5c:	00868693          	addi	a3,a3,8
    1e60:	00458593          	addi	a1,a1,4
    1e64:	f2d518e3          	bne	a0,a3,1d94 <car_plate_recognize_pipeline+0x760>
d:\PDS\SparrowRV-master\bsp\bsp_app\obj/../app/main.c:324 (discriminator 2)
    for (int y = 0; y < TARGET_H; y++) {
    1e68:	1b840413          	addi	s0,s0,440
    1e6c:	37050513          	addi	a0,a0,880
    1e70:	f0941ae3          	bne	s0,s1,1d84 <car_plate_recognize_pipeline+0x750>
d:\PDS\SparrowRV-master\bsp\bsp_app\obj/../app/main.c:340
    printf("[阶段 5/6] 正在执行字符切割 (垂直投影)...\r\n");
    1e74:	20000537          	lui	a0,0x20000
    1e78:	32850513          	addi	a0,a0,808 # 20000328 <_data+0x328>
    1e7c:	f68ff0ef          	jal	ra,15e4 <printf_>
    1e80:	a1c007b7          	lui	a5,0xa1c00
d:\PDS\SparrowRV-master\bsp\bsp_app\obj/../app/main.c:346
    for (int i = 0; i < TARGET_H; i++) { s_h_proj_s4[i] = 0; for(volatile int nop=0; nop<2; nop++); }
    1e84:	00100693          	li	a3,1
    1e88:	11878613          	addi	a2,a5,280 # a1c00118 <_sp+0x81bc0118>
d:\PDS\SparrowRV-master\bsp\bsp_app\obj/../app/main.c:346 (discriminator 7)
    1e8c:	00079023          	sh	zero,0(a5)
    1e90:	02012823          	sw	zero,48(sp)
    1e94:	03012703          	lw	a4,48(sp)
    1e98:	00e6cc63          	blt	a3,a4,1eb0 <car_plate_recognize_pipeline+0x87c>
d:\PDS\SparrowRV-master\bsp\bsp_app\obj/../app/main.c:346 (discriminator 4)
    1e9c:	03012703          	lw	a4,48(sp)
    1ea0:	00170713          	addi	a4,a4,1 # a1200001 <_sp+0x811c0001>
    1ea4:	02e12823          	sw	a4,48(sp)
    1ea8:	03012703          	lw	a4,48(sp)
    1eac:	fee6d8e3          	bge	a3,a4,1e9c <car_plate_recognize_pipeline+0x868>
d:\PDS\SparrowRV-master\bsp\bsp_app\obj/../app/main.c:346
    1eb0:	00278793          	addi	a5,a5,2
    1eb4:	fcc79ce3          	bne	a5,a2,1e8c <car_plate_recognize_pipeline+0x858>
    1eb8:	a1c017b7          	lui	a5,0xa1c01
d:\PDS\SparrowRV-master\bsp\bsp_app\obj/../app/main.c:347
    for (int i = 0; i < TARGET_W; i++) { s_v_proj_s4[i] = 0; for(volatile int nop=0; nop<2; nop++); }
    1ebc:	00100693          	li	a3,1
    1ec0:	37078613          	addi	a2,a5,880 # a1c01370 <_sp+0x81bc1370>
d:\PDS\SparrowRV-master\bsp\bsp_app\obj/../app/main.c:347 (discriminator 7)
    1ec4:	00079023          	sh	zero,0(a5)
    1ec8:	02012a23          	sw	zero,52(sp)
    1ecc:	03412703          	lw	a4,52(sp)
    1ed0:	00e6cc63          	blt	a3,a4,1ee8 <car_plate_recognize_pipeline+0x8b4>
d:\PDS\SparrowRV-master\bsp\bsp_app\obj/../app/main.c:347 (discriminator 4)
    1ed4:	03412703          	lw	a4,52(sp)
    1ed8:	00170713          	addi	a4,a4,1
    1edc:	02e12a23          	sw	a4,52(sp)
    1ee0:	03412703          	lw	a4,52(sp)
    1ee4:	fee6d8e3          	bge	a3,a4,1ed4 <car_plate_recognize_pipeline+0x8a0>
d:\PDS\SparrowRV-master\bsp\bsp_app\obj/../app/main.c:347
    1ee8:	00278793          	addi	a5,a5,2
    1eec:	fcc79ce3          	bne	a5,a2,1ec4 <car_plate_recognize_pipeline+0x890>
d:\PDS\SparrowRV-master\bsp\bsp_app\obj/../app/main.c:352
    printf("   - [5.1] 正在进行水平投影降噪扫描...\r\n");
    1ef0:	20000537          	lui	a0,0x20000
    1ef4:	36450513          	addi	a0,a0,868 # 20000364 <_data+0x364>
    1ef8:	eecff0ef          	jal	ra,15e4 <printf_>
    1efc:	a1a00837          	lui	a6,0xa1a00
d:\PDS\SparrowRV-master\bsp\bsp_app\obj/../app/main.c:354
    for (int y = 0; y < TARGET_H; y++) {
    1f00:	a1a0f337          	lui	t1,0xa1a0f
d:\PDS\SparrowRV-master\bsp\bsp_app\obj/../app/main.c:352
    printf("   - [5.1] 正在进行水平投影降噪扫描...\r\n");
    1f04:	1b880813          	addi	a6,a6,440 # a1a001b8 <_sp+0x819c01b8>
    1f08:	a1c00eb7          	lui	t4,0xa1c00
d:\PDS\SparrowRV-master\bsp\bsp_app\obj/../app/main.c:349
    int max_h_val = 0; int words_per_line = TARGET_W >> 2; 
    1f0c:	00000e13          	li	t3,0
d:\PDS\SparrowRV-master\bsp\bsp_app\obj/../app/main.c:359
            for(volatile int nop=0; nop<4; nop++); // AXI 刹车
    1f10:	00300713          	li	a4,3
d:\PDS\SparrowRV-master\bsp\bsp_app\obj/../app/main.c:366
        for(volatile int nop=0; nop<2; nop++); // 写 DDR 刹车
    1f14:	00100f13          	li	t5,1
d:\PDS\SparrowRV-master\bsp\bsp_app\obj/../app/main.c:354
    for (int y = 0; y < TARGET_H; y++) {
    1f18:	25830313          	addi	t1,t1,600 # a1a0f258 <_sp+0x819cf258>
d:\PDS\SparrowRV-master\bsp\bsp_app\obj/../app/main.c:357
        for (int w = 0; w < words_per_line; w++) {
    1f1c:	e4880613          	addi	a2,a6,-440
d:\PDS\SparrowRV-master\bsp\bsp_app\obj/../app/main.c:356
        int current_row_count = 0; 
    1f20:	00000593          	li	a1,0
d:\PDS\SparrowRV-master\bsp\bsp_app\obj/../app/main.c:358
            uint32_t word = bw_word[base_idx + w];
    1f24:	00062683          	lw	a3,0(a2)
d:\PDS\SparrowRV-master\bsp\bsp_app\obj/../app/main.c:359
            for(volatile int nop=0; nop<4; nop++); // AXI 刹车
    1f28:	02012c23          	sw	zero,56(sp)
    1f2c:	03812783          	lw	a5,56(sp)
    1f30:	00f74c63          	blt	a4,a5,1f48 <car_plate_recognize_pipeline+0x914>
d:\PDS\SparrowRV-master\bsp\bsp_app\obj/../app/main.c:359 (discriminator 3)
    1f34:	03812783          	lw	a5,56(sp)
    1f38:	00178793          	addi	a5,a5,1
    1f3c:	02f12c23          	sw	a5,56(sp)
    1f40:	03812783          	lw	a5,56(sp)
    1f44:	fef758e3          	bge	a4,a5,1f34 <car_plate_recognize_pipeline+0x900>
d:\PDS\SparrowRV-master\bsp\bsp_app\obj/../app/main.c:360
            if (word == 0) continue;
    1f48:	02068e63          	beqz	a3,1f84 <car_plate_recognize_pipeline+0x950>
d:\PDS\SparrowRV-master\bsp\bsp_app\obj/../app/main.c:362
                if ((word >> (k * 8)) & 0xFF) current_row_count++; 
    1f4c:	0ff6f893          	zext.b	a7,a3
    1f50:	0086d793          	srli	a5,a3,0x8
    1f54:	011038b3          	snez	a7,a7
    1f58:	0ff7f793          	zext.b	a5,a5
    1f5c:	0106d513          	srli	a0,a3,0x10
    1f60:	00f037b3          	snez	a5,a5
    1f64:	011585b3          	add	a1,a1,a7
    1f68:	0ff57513          	zext.b	a0,a0
    1f6c:	00f585b3          	add	a1,a1,a5
    1f70:	00a03533          	snez	a0,a0
    1f74:	0186d793          	srli	a5,a3,0x18
    1f78:	00a585b3          	add	a1,a1,a0
    1f7c:	00f037b3          	snez	a5,a5
    1f80:	00f585b3          	add	a1,a1,a5
d:\PDS\SparrowRV-master\bsp\bsp_app\obj/../app/main.c:357 (discriminator 2)
        for (int w = 0; w < words_per_line; w++) {
    1f84:	00460613          	addi	a2,a2,4
    1f88:	f9061ee3          	bne	a2,a6,1f24 <car_plate_recognize_pipeline+0x8f0>
d:\PDS\SparrowRV-master\bsp\bsp_app\obj/../app/main.c:365
        s_h_proj_s4[y] = current_row_count; 
    1f8c:	01059793          	slli	a5,a1,0x10
    1f90:	0107d793          	srli	a5,a5,0x10
    1f94:	00fe9023          	sh	a5,0(t4) # a1c00000 <_sp+0x81bc0000>
d:\PDS\SparrowRV-master\bsp\bsp_app\obj/../app/main.c:366
        for(volatile int nop=0; nop<2; nop++); // 写 DDR 刹车
    1f98:	02012e23          	sw	zero,60(sp)
    1f9c:	03c12783          	lw	a5,60(sp)
    1fa0:	00ff4c63          	blt	t5,a5,1fb8 <car_plate_recognize_pipeline+0x984>
d:\PDS\SparrowRV-master\bsp\bsp_app\obj/../app/main.c:366 (discriminator 3)
    1fa4:	03c12783          	lw	a5,60(sp)
    1fa8:	00178793          	addi	a5,a5,1
    1fac:	02f12e23          	sw	a5,60(sp)
    1fb0:	03c12783          	lw	a5,60(sp)
    1fb4:	feff58e3          	bge	t5,a5,1fa4 <car_plate_recognize_pipeline+0x970>
d:\PDS\SparrowRV-master\bsp\bsp_app\obj/../app/main.c:367
        if (current_row_count > max_h_val) max_h_val = current_row_count;
    1fb8:	00be5463          	bge	t3,a1,1fc0 <car_plate_recognize_pipeline+0x98c>
    1fbc:	00058e13          	mv	t3,a1
d:\PDS\SparrowRV-master\bsp\bsp_app\obj/../app/main.c:354
    for (int y = 0; y < TARGET_H; y++) {
    1fc0:	1b880813          	addi	a6,a6,440
    1fc4:	002e8e93          	addi	t4,t4,2
    1fc8:	f4681ae3          	bne	a6,t1,1f1c <car_plate_recognize_pipeline+0x8e8>
d:\PDS\SparrowRV-master\bsp\bsp_app\obj/../app/main.c:370
    int h_thresh_s4 = (max_h_val * 153) >> 10; 
    1fcc:	003e1793          	slli	a5,t3,0x3
    1fd0:	01c787b3          	add	a5,a5,t3
    1fd4:	00479713          	slli	a4,a5,0x4
    1fd8:	00e787b3          	add	a5,a5,a4
    1fdc:	40a7d793          	srai	a5,a5,0xa
    1fe0:	a1c00637          	lui	a2,0xa1c00
d:\PDS\SparrowRV-master\bsp\bsp_app\obj/../app/main.c:374
    for (int y = 0; y < TARGET_H; y++) {
    1fe4:	00000693          	li	a3,0
d:\PDS\SparrowRV-master\bsp\bsp_app\obj/../app/main.c:372
    int cur_start_s4 = -1; 
    1fe8:	fff00713          	li	a4,-1
d:\PDS\SparrowRV-master\bsp\bsp_app\obj/../app/main.c:371
    int y_top = 0, y_bot = TARGET_H - 1, max_y_len = 0;
    1fec:	00000313          	li	t1,0
    1ff0:	08b00493          	li	s1,139
    1ff4:	00000913          	li	s2,0
d:\PDS\SparrowRV-master\bsp\bsp_app\obj/../app/main.c:376
        for(volatile int nop=0; nop<2; nop++); // 读 DDR 刹车
    1ff8:	00100893          	li	a7,1
d:\PDS\SparrowRV-master\bsp\bsp_app\obj/../app/main.c:378
        else if (cur_start_s4 != -1) {
    1ffc:	fff00813          	li	a6,-1
d:\PDS\SparrowRV-master\bsp\bsp_app\obj/../app/main.c:374
    for (int y = 0; y < TARGET_H; y++) {
    2000:	08c00e13          	li	t3,140
d:\PDS\SparrowRV-master\bsp\bsp_app\obj/../app/main.c:375
        uint16_t h_val = s_h_proj_s4[y];
    2004:	00065583          	lhu	a1,0(a2) # a1c00000 <_sp+0x81bc0000>
d:\PDS\SparrowRV-master\bsp\bsp_app\obj/../app/main.c:376
        for(volatile int nop=0; nop<2; nop++); // 读 DDR 刹车
    2008:	04012023          	sw	zero,64(sp)
    200c:	04012503          	lw	a0,64(sp)
d:\PDS\SparrowRV-master\bsp\bsp_app\obj/../app/main.c:375
        uint16_t h_val = s_h_proj_s4[y];
    2010:	01059593          	slli	a1,a1,0x10
    2014:	0105d593          	srli	a1,a1,0x10
d:\PDS\SparrowRV-master\bsp\bsp_app\obj/../app/main.c:376
        for(volatile int nop=0; nop<2; nop++); // 读 DDR 刹车
    2018:	00a8cc63          	blt	a7,a0,2030 <car_plate_recognize_pipeline+0x9fc>
d:\PDS\SparrowRV-master\bsp\bsp_app\obj/../app/main.c:376 (discriminator 3)
    201c:	04012503          	lw	a0,64(sp)
    2020:	00150513          	addi	a0,a0,1
    2024:	04a12023          	sw	a0,64(sp)
    2028:	04012503          	lw	a0,64(sp)
    202c:	fea8d8e3          	bge	a7,a0,201c <car_plate_recognize_pipeline+0x9e8>
d:\PDS\SparrowRV-master\bsp\bsp_app\obj/../app/main.c:377
        if (h_val > h_thresh_s4) { if (cur_start_s4 == -1) cur_start_s4 = y; }
    2030:	38b7d663          	bge	a5,a1,23bc <car_plate_recognize_pipeline+0xd88>
d:\PDS\SparrowRV-master\bsp\bsp_app\obj/../app/main.c:377 (discriminator 1)
    2034:	01071463          	bne	a4,a6,203c <car_plate_recognize_pipeline+0xa08>
d:\PDS\SparrowRV-master\bsp\bsp_app\obj/../app/main.c:377
    2038:	00068713          	mv	a4,a3
d:\PDS\SparrowRV-master\bsp\bsp_app\obj/../app/main.c:374 (discriminator 2)
    for (int y = 0; y < TARGET_H; y++) {
    203c:	00168693          	addi	a3,a3,1
    2040:	00260613          	addi	a2,a2,2
    2044:	fdc690e3          	bne	a3,t3,2004 <car_plate_recognize_pipeline+0x9d0>
d:\PDS\SparrowRV-master\bsp\bsp_app\obj/../app/main.c:383
    int margin_y = ((y_bot - y_top) * 51) >> 10; 
    2048:	41248733          	sub	a4,s1,s2
    204c:	00171793          	slli	a5,a4,0x1
    2050:	00e787b3          	add	a5,a5,a4
    2054:	00479713          	slli	a4,a5,0x4
    2058:	00e787b3          	add	a5,a5,a4
    205c:	40a7d793          	srai	a5,a5,0xa
d:\PDS\SparrowRV-master\bsp\bsp_app\obj/../app/main.c:384
    y_top = get_max(0, y_top - margin_y);
    2060:	40f90933          	sub	s2,s2,a5
get_max():
d:\PDS\SparrowRV-master\bsp\bsp_app\obj/../app/main.c:51
int get_max(int a, int b) { return a > b ? a : b; }
    2064:	fff94713          	not	a4,s2
    2068:	41f75713          	srai	a4,a4,0x1f
car_plate_recognize_pipeline():
d:\PDS\SparrowRV-master\bsp\bsp_app\obj/../app/main.c:385
    y_bot = get_min(TARGET_H - 1, y_bot + margin_y);
    206c:	00f484b3          	add	s1,s1,a5
get_min():
d:\PDS\SparrowRV-master\bsp\bsp_app\obj/../app/main.c:52
int get_min(int a, int b) { return a < b ? a : b; }
    2070:	08b00793          	li	a5,139
get_max():
d:\PDS\SparrowRV-master\bsp\bsp_app\obj/../app/main.c:51
int get_max(int a, int b) { return a > b ? a : b; }
    2074:	00e97933          	and	s2,s2,a4
get_min():
d:\PDS\SparrowRV-master\bsp\bsp_app\obj/../app/main.c:52
int get_min(int a, int b) { return a < b ? a : b; }
    2078:	5897c263          	blt	a5,s1,25fc <car_plate_recognize_pipeline+0xfc8>
car_plate_recognize_pipeline():
d:\PDS\SparrowRV-master\bsp\bsp_app\obj/../app/main.c:390
    printf("   - [5.2] 正在进行垂直投影字符切片...\r\n");
    207c:	20000537          	lui	a0,0x20000
    2080:	39c50513          	addi	a0,a0,924 # 2000039c <_data+0x39c>
    2084:	d60ff0ef          	jal	ra,15e4 <printf_>
d:\PDS\SparrowRV-master\bsp\bsp_app\obj/../app/main.c:392
    for (int w = 0; w < words_per_line; w++) {
    2088:	1b800793          	li	a5,440
    208c:	40990e33          	sub	t3,s2,s1
    2090:	02f485b3          	mul	a1,s1,a5
d:\PDS\SparrowRV-master\bsp\bsp_app\obj/../app/main.c:390
    printf("   - [5.2] 正在进行垂直投影字符切片...\r\n");
    2094:	a1c01537          	lui	a0,0xa1c01
d:\PDS\SparrowRV-master\bsp\bsp_app\obj/../app/main.c:392
    for (int w = 0; w < words_per_line; w++) {
    2098:	00000e93          	li	t4,0
d:\PDS\SparrowRV-master\bsp\bsp_app\obj/../app/main.c:387
    int max_v_val = 0;
    209c:	00000413          	li	s0,0
d:\PDS\SparrowRV-master\bsp\bsp_app\obj/../app/main.c:397
            for(volatile int nop=0; nop<4; nop++); // AXI 刹车
    20a0:	00300613          	li	a2,3
d:\PDS\SparrowRV-master\bsp\bsp_app\obj/../app/main.c:392
    for (int w = 0; w < words_per_line; w++) {
    20a4:	06e00f13          	li	t5,110
    20a8:	02fe0e33          	mul	t3,t3,a5
    20ac:	a1a007b7          	lui	a5,0xa1a00
    20b0:	1b878793          	addi	a5,a5,440 # a1a001b8 <_sp+0x819c01b8>
    20b4:	00f585b3          	add	a1,a1,a5
    20b8:	e48e0e13          	addi	t3,t3,-440
d:\PDS\SparrowRV-master\bsp\bsp_app\obj/../app/main.c:395
        for (int y = y_top; y <= y_bot; y++) {
    20bc:	3324c463          	blt	s1,s2,23e4 <car_plate_recognize_pipeline+0xdb0>
    20c0:	00be03b3          	add	t2,t3,a1
d:\PDS\SparrowRV-master\bsp\bsp_app\obj/../app/main.c:393
        int col_count[4] = {0, 0, 0, 0}; 
    20c4:	00000893          	li	a7,0
    20c8:	00000713          	li	a4,0
    20cc:	00000313          	li	t1,0
    20d0:	00000813          	li	a6,0
d:\PDS\SparrowRV-master\bsp\bsp_app\obj/../app/main.c:396
            uint32_t word = bw_word[y * words_per_line + w];
    20d4:	0003a683          	lw	a3,0(t2)
d:\PDS\SparrowRV-master\bsp\bsp_app\obj/../app/main.c:397
            for(volatile int nop=0; nop<4; nop++); // AXI 刹车
    20d8:	04012223          	sw	zero,68(sp)
    20dc:	04412783          	lw	a5,68(sp)
    20e0:	00f64c63          	blt	a2,a5,20f8 <car_plate_recognize_pipeline+0xac4>
d:\PDS\SparrowRV-master\bsp\bsp_app\obj/../app/main.c:397 (discriminator 3)
    20e4:	04412783          	lw	a5,68(sp)
    20e8:	00178793          	addi	a5,a5,1
    20ec:	04f12223          	sw	a5,68(sp)
    20f0:	04412783          	lw	a5,68(sp)
    20f4:	fef658e3          	bge	a2,a5,20e4 <car_plate_recognize_pipeline+0xab0>
d:\PDS\SparrowRV-master\bsp\bsp_app\obj/../app/main.c:399
            if (word == 0) continue;
    20f8:	02068e63          	beqz	a3,2134 <car_plate_recognize_pipeline+0xb00>
d:\PDS\SparrowRV-master\bsp\bsp_app\obj/../app/main.c:401
            if ((word >> 8)  & 0xFF) col_count[1]++;
    20fc:	0086d293          	srli	t0,a3,0x8
d:\PDS\SparrowRV-master\bsp\bsp_app\obj/../app/main.c:402
            if ((word >> 16) & 0xFF) col_count[2]++;
    2100:	0106df93          	srli	t6,a3,0x10
d:\PDS\SparrowRV-master\bsp\bsp_app\obj/../app/main.c:400
            if ((word >> 0)  & 0xFF) col_count[0]++;
    2104:	0ff6f093          	zext.b	ra,a3
d:\PDS\SparrowRV-master\bsp\bsp_app\obj/../app/main.c:403
            if ((word >> 24) & 0xFF) col_count[3]++;
    2108:	0186d793          	srli	a5,a3,0x18
d:\PDS\SparrowRV-master\bsp\bsp_app\obj/../app/main.c:401
            if ((word >> 8)  & 0xFF) col_count[1]++;
    210c:	0ff2f293          	zext.b	t0,t0
d:\PDS\SparrowRV-master\bsp\bsp_app\obj/../app/main.c:402
            if ((word >> 16) & 0xFF) col_count[2]++;
    2110:	0fffff93          	zext.b	t6,t6
d:\PDS\SparrowRV-master\bsp\bsp_app\obj/../app/main.c:400
            if ((word >> 0)  & 0xFF) col_count[0]++;
    2114:	001030b3          	snez	ra,ra
d:\PDS\SparrowRV-master\bsp\bsp_app\obj/../app/main.c:401
            if ((word >> 8)  & 0xFF) col_count[1]++;
    2118:	005032b3          	snez	t0,t0
d:\PDS\SparrowRV-master\bsp\bsp_app\obj/../app/main.c:402
            if ((word >> 16) & 0xFF) col_count[2]++;
    211c:	01f036b3          	snez	a3,t6
d:\PDS\SparrowRV-master\bsp\bsp_app\obj/../app/main.c:403
            if ((word >> 24) & 0xFF) col_count[3]++;
    2120:	00f037b3          	snez	a5,a5
d:\PDS\SparrowRV-master\bsp\bsp_app\obj/../app/main.c:400
            if ((word >> 0)  & 0xFF) col_count[0]++;
    2124:	00180833          	add	a6,a6,ra
d:\PDS\SparrowRV-master\bsp\bsp_app\obj/../app/main.c:401
            if ((word >> 8)  & 0xFF) col_count[1]++;
    2128:	00530333          	add	t1,t1,t0
d:\PDS\SparrowRV-master\bsp\bsp_app\obj/../app/main.c:402
            if ((word >> 16) & 0xFF) col_count[2]++;
    212c:	00d70733          	add	a4,a4,a3
d:\PDS\SparrowRV-master\bsp\bsp_app\obj/../app/main.c:403
            if ((word >> 24) & 0xFF) col_count[3]++;
    2130:	00f888b3          	add	a7,a7,a5
d:\PDS\SparrowRV-master\bsp\bsp_app\obj/../app/main.c:395 (discriminator 2)
        for (int y = y_top; y <= y_bot; y++) {
    2134:	1b838393          	addi	t2,t2,440
    2138:	f8b39ee3          	bne	t2,a1,20d4 <car_plate_recognize_pipeline+0xaa0>
    213c:	00080693          	mv	a3,a6
d:\PDS\SparrowRV-master\bsp\bsp_app\obj/../app/main.c:407
        s_v_proj_s4[w * 4 + 1] = col_count[1];
    2140:	01031793          	slli	a5,t1,0x10
d:\PDS\SparrowRV-master\bsp\bsp_app\obj/../app/main.c:406
        s_v_proj_s4[w * 4 + 0] = col_count[0];
    2144:	01081813          	slli	a6,a6,0x10
d:\PDS\SparrowRV-master\bsp\bsp_app\obj/../app/main.c:408
        s_v_proj_s4[w * 4 + 2] = col_count[2];
    2148:	01071f93          	slli	t6,a4,0x10
d:\PDS\SparrowRV-master\bsp\bsp_app\obj/../app/main.c:409
        s_v_proj_s4[w * 4 + 3] = col_count[3];
    214c:	01089293          	slli	t0,a7,0x10
d:\PDS\SparrowRV-master\bsp\bsp_app\obj/../app/main.c:406
        s_v_proj_s4[w * 4 + 0] = col_count[0];
    2150:	01085813          	srli	a6,a6,0x10
d:\PDS\SparrowRV-master\bsp\bsp_app\obj/../app/main.c:407
        s_v_proj_s4[w * 4 + 1] = col_count[1];
    2154:	0107d793          	srli	a5,a5,0x10
d:\PDS\SparrowRV-master\bsp\bsp_app\obj/../app/main.c:408
        s_v_proj_s4[w * 4 + 2] = col_count[2];
    2158:	010fdf93          	srli	t6,t6,0x10
d:\PDS\SparrowRV-master\bsp\bsp_app\obj/../app/main.c:409
        s_v_proj_s4[w * 4 + 3] = col_count[3];
    215c:	0102d293          	srli	t0,t0,0x10
    2160:	0066d463          	bge	a3,t1,2168 <car_plate_recognize_pipeline+0xb34>
    2164:	00030693          	mv	a3,t1
d:\PDS\SparrowRV-master\bsp\bsp_app\obj/../app/main.c:406
        s_v_proj_s4[w * 4 + 0] = col_count[0];
    2168:	01051023          	sh	a6,0(a0) # a1c01000 <_sp+0x81bc1000>
d:\PDS\SparrowRV-master\bsp\bsp_app\obj/../app/main.c:407
        s_v_proj_s4[w * 4 + 1] = col_count[1];
    216c:	00f51123          	sh	a5,2(a0)
d:\PDS\SparrowRV-master\bsp\bsp_app\obj/../app/main.c:408
        s_v_proj_s4[w * 4 + 2] = col_count[2];
    2170:	01f51223          	sh	t6,4(a0)
d:\PDS\SparrowRV-master\bsp\bsp_app\obj/../app/main.c:409
        s_v_proj_s4[w * 4 + 3] = col_count[3];
    2174:	00551323          	sh	t0,6(a0)
d:\PDS\SparrowRV-master\bsp\bsp_app\obj/../app/main.c:410
        for(volatile int nop=0; nop<4; nop++); // 写 DDR 刹车
    2178:	04012423          	sw	zero,72(sp)
    217c:	04812783          	lw	a5,72(sp)
    2180:	00f64c63          	blt	a2,a5,2198 <car_plate_recognize_pipeline+0xb64>
d:\PDS\SparrowRV-master\bsp\bsp_app\obj/../app/main.c:410 (discriminator 3)
    2184:	04812783          	lw	a5,72(sp)
    2188:	00178793          	addi	a5,a5,1
    218c:	04f12423          	sw	a5,72(sp)
    2190:	04812783          	lw	a5,72(sp)
    2194:	fef658e3          	bge	a2,a5,2184 <car_plate_recognize_pipeline+0xb50>
d:\PDS\SparrowRV-master\bsp\bsp_app\obj/../app/main.c:415
        if (col_count[3] > max_v_val) max_v_val = col_count[3];
    2198:	00070793          	mv	a5,a4
    219c:	01175463          	bge	a4,a7,21a4 <car_plate_recognize_pipeline+0xb70>
    21a0:	00088793          	mv	a5,a7
    21a4:	0087d463          	bge	a5,s0,21ac <car_plate_recognize_pipeline+0xb78>
    21a8:	00040793          	mv	a5,s0
    21ac:	00078413          	mv	s0,a5
    21b0:	00d7d463          	bge	a5,a3,21b8 <car_plate_recognize_pipeline+0xb84>
    21b4:	00068413          	mv	s0,a3
d:\PDS\SparrowRV-master\bsp\bsp_app\obj/../app/main.c:392
    for (int w = 0; w < words_per_line; w++) {
    21b8:	001e8e93          	addi	t4,t4,1
    21bc:	00850513          	addi	a0,a0,8
    21c0:	00458593          	addi	a1,a1,4
    21c4:	efee9ce3          	bne	t4,t5,20bc <car_plate_recognize_pipeline+0xa88>
d:\PDS\SparrowRV-master\bsp\bsp_app\obj/../app/main.c:419
    printf("   - [5.3] 正在合并离散连通域 (绝对免疫栈溢出)...\r\n");
    21c8:	20000537          	lui	a0,0x20000
    21cc:	3d450513          	addi	a0,a0,980 # 200003d4 <_data+0x3d4>
    21d0:	c14ff0ef          	jal	ra,15e4 <printf_>
d:\PDS\SparrowRV-master\bsp\bsp_app\obj/../app/main.c:421
    int v_thresh_s4 = (max_v_val * 102) >> 10; 
    21d4:	06600793          	li	a5,102
    21d8:	02f407b3          	mul	a5,s0,a5
    21dc:	a1c01537          	lui	a0,0xa1c01
d:\PDS\SparrowRV-master\bsp\bsp_app\obj/../app/main.c:433
    for (int x = 0; x < TARGET_W; x++) {
    21e0:	00000593          	li	a1,0
d:\PDS\SparrowRV-master\bsp\bsp_app\obj/../app/main.c:422
    int raw_count = 0, in_char = 0;
    21e4:	00000713          	li	a4,0
    21e8:	00000413          	li	s0,0
d:\PDS\SparrowRV-master\bsp\bsp_app\obj/../app/main.c:435
        for(volatile int nop=0; nop<2; nop++);
    21ec:	00100893          	li	a7,1
d:\PDS\SparrowRV-master\bsp\bsp_app\obj/../app/main.c:443
            raw_x2[raw_count] = x - 1;
    21f0:	a1e01fb7          	lui	t6,0xa1e01
d:\PDS\SparrowRV-master\bsp\bsp_app\obj/../app/main.c:444
            raw_w[raw_count]  = x - raw_x1[raw_count];
    21f4:	a1e00837          	lui	a6,0xa1e00
    21f8:	a1e02f37          	lui	t5,0xa1e02
d:\PDS\SparrowRV-master\bsp\bsp_app\obj/../app/main.c:445
            if (raw_w[raw_count] >= 4) raw_count++; 
    21fc:	00300e93          	li	t4,3
d:\PDS\SparrowRV-master\bsp\bsp_app\obj/../app/main.c:421
    int v_thresh_s4 = (max_v_val * 102) >> 10; 
    2200:	40a7d793          	srai	a5,a5,0xa
d:\PDS\SparrowRV-master\bsp\bsp_app\obj/../app/main.c:438
            if (!in_char && raw_count < 50) { // 强行限制容量，杜绝越界
    2204:	03100e13          	li	t3,49
d:\PDS\SparrowRV-master\bsp\bsp_app\obj/../app/main.c:433
    for (int x = 0; x < TARGET_W; x++) {
    2208:	1b800313          	li	t1,440
d:\PDS\SparrowRV-master\bsp\bsp_app\obj/../app/main.c:434
        uint16_t cur_v_val = s_v_proj_s4[x]; // 单次读 DDR
    220c:	00055683          	lhu	a3,0(a0) # a1c01000 <_sp+0x81bc1000>
d:\PDS\SparrowRV-master\bsp\bsp_app\obj/../app/main.c:435
        for(volatile int nop=0; nop<2; nop++);
    2210:	04012623          	sw	zero,76(sp)
    2214:	04c12603          	lw	a2,76(sp)
d:\PDS\SparrowRV-master\bsp\bsp_app\obj/../app/main.c:434
        uint16_t cur_v_val = s_v_proj_s4[x]; // 单次读 DDR
    2218:	01069693          	slli	a3,a3,0x10
    221c:	0106d693          	srli	a3,a3,0x10
d:\PDS\SparrowRV-master\bsp\bsp_app\obj/../app/main.c:435
        for(volatile int nop=0; nop<2; nop++);
    2220:	00c8cc63          	blt	a7,a2,2238 <car_plate_recognize_pipeline+0xc04>
d:\PDS\SparrowRV-master\bsp\bsp_app\obj/../app/main.c:435 (discriminator 3)
    2224:	04c12603          	lw	a2,76(sp)
    2228:	00160613          	addi	a2,a2,1
    222c:	04c12623          	sw	a2,76(sp)
    2230:	04c12603          	lw	a2,76(sp)
    2234:	fec8d8e3          	bge	a7,a2,2224 <car_plate_recognize_pipeline+0xbf0>
d:\PDS\SparrowRV-master\bsp\bsp_app\obj/../app/main.c:437
        if (cur_v_val >= v_thresh_s4) {
    2238:	1cf6c663          	blt	a3,a5,2404 <car_plate_recognize_pipeline+0xdd0>
d:\PDS\SparrowRV-master\bsp\bsp_app\obj/../app/main.c:438
            if (!in_char && raw_count < 50) { // 强行限制容量，杜绝越界
    223c:	00071a63          	bnez	a4,2250 <car_plate_recognize_pipeline+0xc1c>
d:\PDS\SparrowRV-master\bsp\bsp_app\obj/../app/main.c:438 (discriminator 1)
    2240:	1e8e4c63          	blt	t3,s0,2438 <car_plate_recognize_pipeline+0xe04>
d:\PDS\SparrowRV-master\bsp\bsp_app\obj/../app/main.c:439
                raw_x1[raw_count] = x; 
    2244:	00241713          	slli	a4,s0,0x2
    2248:	00e80733          	add	a4,a6,a4
    224c:	00b72023          	sw	a1,0(a4)
d:\PDS\SparrowRV-master\bsp\bsp_app\obj/../app/main.c:433
    for (int x = 0; x < TARGET_W; x++) {
    2250:	00158593          	addi	a1,a1,1
d:\PDS\SparrowRV-master\bsp\bsp_app\obj/../app/main.c:422
    int raw_count = 0, in_char = 0;
    2254:	00100713          	li	a4,1
d:\PDS\SparrowRV-master\bsp\bsp_app\obj/../app/main.c:433
    for (int x = 0; x < TARGET_W; x++) {
    2258:	00250513          	addi	a0,a0,2
    225c:	fa6598e3          	bne	a1,t1,220c <car_plate_recognize_pipeline+0xbd8>
d:\PDS\SparrowRV-master\bsp\bsp_app\obj/../app/main.c:449
    if (in_char && raw_count < 50) {
    2260:	1e071663          	bnez	a4,244c <car_plate_recognize_pipeline+0xe18>
d:\PDS\SparrowRV-master\bsp\bsp_app\obj/../app/main.c:456
    if (raw_count > 0) {
    2264:	2a0412e3          	bnez	s0,2d08 <car_plate_recognize_pipeline+0x16d4>
d:\PDS\SparrowRV-master\bsp\bsp_app\obj/../app/main.c:493
    printf(" >> 切割完成！共切出候选字符模块数量: %d\r\n", m_count);
    2268:	20000537          	lui	a0,0x20000
    226c:	00000593          	li	a1,0
    2270:	41850513          	addi	a0,a0,1048 # 20000418 <_data+0x418>
    2274:	b70ff0ef          	jal	ra,15e4 <printf_>
d:\PDS\SparrowRV-master\bsp\bsp_app\obj/../app/main.c:498
    printf("[阶段 6/6] 送入模板匹配识别！\r\n识别结果: ");
    2278:	20000537          	lui	a0,0x20000
    227c:	45450513          	addi	a0,a0,1108 # 20000454 <_data+0x454>
    2280:	b64ff0ef          	jal	ra,15e4 <printf_>
d:\PDS\SparrowRV-master\bsp\bsp_app\obj/../app/main.c:511
    printf("\r\n"); 
    2284:	20000537          	lui	a0,0x20000
    2288:	26850513          	addi	a0,a0,616 # 20000268 <_data+0x268>
    228c:	b58ff0ef          	jal	ra,15e4 <printf_>
set_led5_status():
d:\PDS\SparrowRV-master\bsp\bsp_app\obj/../app/main.c:551
    uint32_t dout = fpioa_nio_dout_read(); 
    2290:	fb9fd0ef          	jal	ra,248 <fpioa_nio_dout_read>
d:\PDS\SparrowRV-master\bsp\bsp_app\obj/../app/main.c:552
    if (on) dout |= NIO_16; else dout &= ~NIO_16; 
    2294:	ffff07b7          	lui	a5,0xffff0
    2298:	fff78793          	addi	a5,a5,-1 # fffeffff <_sp+0xdffaffff>
d:\PDS\SparrowRV-master\bsp\bsp_app\obj/../app/main.c:553
    fpioa_nio_dout_write(dout); 
    229c:	00f57533          	and	a0,a0,a5
    22a0:	f9dfd0ef          	jal	ra,23c <fpioa_nio_dout_write>
set_led6_status():
d:\PDS\SparrowRV-master\bsp\bsp_app\obj/../app/main.c:545
    uint32_t dout = fpioa_nio_dout_read(); 
    22a4:	fa5fd0ef          	jal	ra,248 <fpioa_nio_dout_read>
d:\PDS\SparrowRV-master\bsp\bsp_app\obj/../app/main.c:546
    if (on) dout |= NIO_14; else dout &= ~NIO_14;
    22a8:	ffffc7b7          	lui	a5,0xffffc
    22ac:	fff78793          	addi	a5,a5,-1 # ffffbfff <_sp+0xdffbbfff>
d:\PDS\SparrowRV-master\bsp\bsp_app\obj/../app/main.c:547
    fpioa_nio_dout_write(dout); 
    22b0:	00f57533          	and	a0,a0,a5
    22b4:	f89fd0ef          	jal	ra,23c <fpioa_nio_dout_write>
car_plate_recognize_pipeline():
d:\PDS\SparrowRV-master\bsp\bsp_app\obj/../app/main.c:534
}
    22b8:	0c812403          	lw	s0,200(sp)
    22bc:	0cc12083          	lw	ra,204(sp)
    22c0:	0c412483          	lw	s1,196(sp)
    22c4:	0c012903          	lw	s2,192(sp)
    22c8:	0bc12983          	lw	s3,188(sp)
    22cc:	0b812a03          	lw	s4,184(sp)
    22d0:	0b412a83          	lw	s5,180(sp)
    22d4:	0b012b03          	lw	s6,176(sp)
    22d8:	0ac12b83          	lw	s7,172(sp)
    22dc:	0a812c03          	lw	s8,168(sp)
    22e0:	0a412c83          	lw	s9,164(sp)
    22e4:	0a012d03          	lw	s10,160(sp)
    22e8:	09c12d83          	lw	s11,156(sp)
d:\PDS\SparrowRV-master\bsp\bsp_app\obj/../app/main.c:532
        printf("\r\n[!] 模板匹配未达到阈值，判定为无效噪点框。\r\n");
    22ec:	20000537          	lui	a0,0x20000
    22f0:	4e050513          	addi	a0,a0,1248 # 200004e0 <_data+0x4e0>
d:\PDS\SparrowRV-master\bsp\bsp_app\obj/../app/main.c:534
}
    22f4:	0d010113          	addi	sp,sp,208
d:\PDS\SparrowRV-master\bsp\bsp_app\obj/../app/main.c:532
        printf("\r\n[!] 模板匹配未达到阈值，判定为无效噪点框。\r\n");
    22f8:	aecff06f          	j	15e4 <printf_>
d:\PDS\SparrowRV-master\bsp\bsp_app\obj/../app/main.c:200
        else if(cur_y_min != -1) {
    22fc:	c2650663          	beq	a0,t1,1728 <car_plate_recognize_pipeline+0xf4>
d:\PDS\SparrowRV-master\bsp\bsp_app\obj/../app/main.c:201
            int cur_h = y - cur_y_min;
    2300:	40a807b3          	sub	a5,a6,a0
d:\PDS\SparrowRV-master\bsp\bsp_app\obj/../app/main.c:202
            if(cur_h > max_h && cur_h > 20 && cur_h < 300) {
    2304:	04fe5a63          	bge	t3,a5,2358 <car_plate_recognize_pipeline+0xd24>
d:\PDS\SparrowRV-master\bsp\bsp_app\obj/../app/main.c:202 (discriminator 1)
    2308:	feb78713          	addi	a4,a5,-21
    230c:	04ef6663          	bltu	t5,a4,2358 <car_plate_recognize_pipeline+0xd24>
d:\PDS\SparrowRV-master\bsp\bsp_app\obj/../app/main.c:203
                max_h = cur_h; y_min = cur_y_min; y_max = y - 1;
    2310:	00050b13          	mv	s6,a0
    2314:	fff80993          	addi	s3,a6,-1 # a1dfffff <_sp+0x81dbffff>
    2318:	00078e13          	mv	t3,a5
d:\PDS\SparrowRV-master\bsp\bsp_app\obj/../app/main.c:205
            cur_y_min = -1;
    231c:	fff00513          	li	a0,-1
    2320:	c08ff06f          	j	1728 <car_plate_recognize_pipeline+0xf4>
d:\PDS\SparrowRV-master\bsp\bsp_app\obj/../app/main.c:218
        } else if(cur_x_min != -1) {
    2324:	cbe50863          	beq	a0,t5,17d4 <car_plate_recognize_pipeline+0x1a0>
d:\PDS\SparrowRV-master\bsp\bsp_app\obj/../app/main.c:219
            gap_count++;
    2328:	00130313          	addi	t1,t1,1
d:\PDS\SparrowRV-master\bsp\bsp_app\obj/../app/main.c:220
            if(gap_count > 60) { 
    232c:	ca64d463          	bge	s1,t1,17d4 <car_plate_recognize_pipeline+0x1a0>
d:\PDS\SparrowRV-master\bsp\bsp_app\obj/../app/main.c:221
                int cur_w = (x - 60) - cur_x_min; 
    2330:	fc440613          	addi	a2,s0,-60
    2334:	40a60733          	sub	a4,a2,a0
d:\PDS\SparrowRV-master\bsp\bsp_app\obj/../app/main.c:222
                if(cur_w > max_w && cur_w > 50 && cur_w < 800) {
    2338:	02ee5463          	bge	t3,a4,2360 <car_plate_recognize_pipeline+0xd2c>
d:\PDS\SparrowRV-master\bsp\bsp_app\obj/../app/main.c:222 (discriminator 1)
    233c:	fcd70593          	addi	a1,a4,-51
    2340:	02b0e063          	bltu	ra,a1,2360 <car_plate_recognize_pipeline+0xd2c>
d:\PDS\SparrowRV-master\bsp\bsp_app\obj/../app/main.c:222
    2344:	00050913          	mv	s2,a0
    2348:	00070e13          	mv	t3,a4
d:\PDS\SparrowRV-master\bsp\bsp_app\obj/../app/main.c:223
                    max_w = cur_w; x_min = cur_x_min; x_max = x - 60;
    234c:	00060e93          	mv	t4,a2
d:\PDS\SparrowRV-master\bsp\bsp_app\obj/../app/main.c:225
                cur_x_min = -1;
    2350:	fff00513          	li	a0,-1
    2354:	c80ff06f          	j	17d4 <car_plate_recognize_pipeline+0x1a0>
    2358:	fff00513          	li	a0,-1
    235c:	bccff06f          	j	1728 <car_plate_recognize_pipeline+0xf4>
    2360:	fff00513          	li	a0,-1
    2364:	c70ff06f          	j	17d4 <car_plate_recognize_pipeline+0x1a0>
safe_div():
d:\PDS\SparrowRV-master\bsp\bsp_app\obj/../app/main.c:58
    while (num >= den) {
    2368:	00000793          	li	a5,0
    236c:	00000393          	li	t2,0
    2370:	00000493          	li	s1,0
    2374:	10000513          	li	a0,256
    2378:	8ddff06f          	j	1c54 <car_plate_recognize_pipeline+0x620>
car_plate_recognize_pipeline():
d:\PDS\SparrowRV-master\bsp\bsp_app\obj/../app/main.c:313
                dst_img[y * TARGET_W + x] = 0;
    237c:	000e1023          	sh	zero,0(t3)
    2380:	95dff06f          	j	1cdc <car_plate_recognize_pipeline+0x6a8>
safe_div():
d:\PDS\SparrowRV-master\bsp\bsp_app\obj/../app/main.c:66
        res += multiple;
    2384:	00130313          	addi	t1,t1,1
d:\PDS\SparrowRV-master\bsp\bsp_app\obj/../app/main.c:58
    while (num >= den) {
    2388:	8a9ff06f          	j	1c30 <car_plate_recognize_pipeline+0x5fc>
d:\PDS\SparrowRV-master\bsp\bsp_app\obj/../app/main.c:66
        res += multiple;
    238c:	001e8e93          	addi	t4,t4,1
car_plate_recognize_pipeline():
d:\PDS\SparrowRV-master\bsp\bsp_app\obj/../app/main.c:301
        int fy = safe_div(y * FIXED_SCALE, TARGET_H - 1), inv_fy = FIXED_SCALE - fy;
    2390:	41dd8f33          	sub	t5,s11,t4
    2394:	849ff06f          	j	1bdc <car_plate_recognize_pipeline+0x5a8>
d:\PDS\SparrowRV-master\bsp\bsp_app\obj/../app/main.c:330
                if (r > 120) out_bw |= (255 << (k * 8)); 
    2398:	000f8c93          	mv	s9,t6
    239c:	000f0c13          	mv	s8,t5
    23a0:	000e8b93          	mv	s7,t4
    23a4:	00008a93          	mv	s5,ra
    23a8:	fff00913          	li	s2,-1
    23ac:	00038993          	mv	s3,t2
    23b0:	00028a13          	mv	s4,t0
    23b4:	0ff00b13          	li	s6,255
    23b8:	a15ff06f          	j	1dcc <car_plate_recognize_pipeline+0x798>
d:\PDS\SparrowRV-master\bsp\bsp_app\obj/../app/main.c:378
        else if (cur_start_s4 != -1) {
    23bc:	c90700e3          	beq	a4,a6,203c <car_plate_recognize_pipeline+0xa08>
d:\PDS\SparrowRV-master\bsp\bsp_app\obj/../app/main.c:379
            if (y - cur_start_s4 > max_y_len) { max_y_len = y - cur_start_s4; y_top = cur_start_s4; y_bot = y - 1; }
    23c0:	40e685b3          	sub	a1,a3,a4
    23c4:	00b35c63          	bge	t1,a1,23dc <car_plate_recognize_pipeline+0xda8>
d:\PDS\SparrowRV-master\bsp\bsp_app\obj/../app/main.c:379 (discriminator 1)
    23c8:	00070913          	mv	s2,a4
    23cc:	fff68493          	addi	s1,a3,-1
    23d0:	00058313          	mv	t1,a1
d:\PDS\SparrowRV-master\bsp\bsp_app\obj/../app/main.c:380 (discriminator 1)
            cur_start_s4 = -1;
    23d4:	fff00713          	li	a4,-1
    23d8:	c65ff06f          	j	203c <car_plate_recognize_pipeline+0xa08>
d:\PDS\SparrowRV-master\bsp\bsp_app\obj/../app/main.c:380
    23dc:	fff00713          	li	a4,-1
    23e0:	c5dff06f          	j	203c <car_plate_recognize_pipeline+0xa08>
d:\PDS\SparrowRV-master\bsp\bsp_app\obj/../app/main.c:395
        for (int y = y_top; y <= y_bot; y++) {
    23e4:	00000693          	li	a3,0
    23e8:	00000293          	li	t0,0
    23ec:	00000f93          	li	t6,0
    23f0:	00000793          	li	a5,0
    23f4:	00000813          	li	a6,0
d:\PDS\SparrowRV-master\bsp\bsp_app\obj/../app/main.c:393
        int col_count[4] = {0, 0, 0, 0}; 
    23f8:	00000893          	li	a7,0
    23fc:	00000713          	li	a4,0
    2400:	d69ff06f          	j	2168 <car_plate_recognize_pipeline+0xb34>
d:\PDS\SparrowRV-master\bsp\bsp_app\obj/../app/main.c:442
        } else if (in_char) {
    2404:	02070a63          	beqz	a4,2438 <car_plate_recognize_pipeline+0xe04>
d:\PDS\SparrowRV-master\bsp\bsp_app\obj/../app/main.c:443
            raw_x2[raw_count] = x - 1;
    2408:	00241713          	slli	a4,s0,0x2
    240c:	00ef86b3          	add	a3,t6,a4
    2410:	fff58613          	addi	a2,a1,-1
    2414:	00c6a023          	sw	a2,0(a3)
d:\PDS\SparrowRV-master\bsp\bsp_app\obj/../app/main.c:444
            raw_w[raw_count]  = x - raw_x1[raw_count];
    2418:	00e806b3          	add	a3,a6,a4
    241c:	0006a683          	lw	a3,0(a3)
    2420:	00ef0733          	add	a4,t5,a4
    2424:	40d586b3          	sub	a3,a1,a3
    2428:	00d72023          	sw	a3,0(a4)
d:\PDS\SparrowRV-master\bsp\bsp_app\obj/../app/main.c:445
            if (raw_w[raw_count] >= 4) raw_count++; 
    242c:	00072703          	lw	a4,0(a4)
    2430:	00eed463          	bge	t4,a4,2438 <car_plate_recognize_pipeline+0xe04>
d:\PDS\SparrowRV-master\bsp\bsp_app\obj/../app/main.c:445 (discriminator 1)
    2434:	00140413          	addi	s0,s0,1
d:\PDS\SparrowRV-master\bsp\bsp_app\obj/../app/main.c:433 (discriminator 1)
    for (int x = 0; x < TARGET_W; x++) {
    2438:	00158593          	addi	a1,a1,1
d:\PDS\SparrowRV-master\bsp\bsp_app\obj/../app/main.c:446 (discriminator 1)
            in_char = 0;
    243c:	00000713          	li	a4,0
d:\PDS\SparrowRV-master\bsp\bsp_app\obj/../app/main.c:433 (discriminator 1)
    for (int x = 0; x < TARGET_W; x++) {
    2440:	00250513          	addi	a0,a0,2
    2444:	dc6594e3          	bne	a1,t1,220c <car_plate_recognize_pipeline+0xbd8>
d:\PDS\SparrowRV-master\bsp\bsp_app\obj/../app/main.c:449
    if (in_char && raw_count < 50) {
    2448:	e0070ee3          	beqz	a4,2264 <car_plate_recognize_pipeline+0xc30>
d:\PDS\SparrowRV-master\bsp\bsp_app\obj/../app/main.c:449 (discriminator 1)
    244c:	03100793          	li	a5,49
d:\PDS\SparrowRV-master\bsp\bsp_app\obj/../app/main.c:458 (discriminator 1)
        for(int i = 0; i < raw_count - 1; i++) {
    2450:	fff40513          	addi	a0,s0,-1
d:\PDS\SparrowRV-master\bsp\bsp_app\obj/../app/main.c:449 (discriminator 1)
    if (in_char && raw_count < 50) {
    2454:	0487c663          	blt	a5,s0,24a0 <car_plate_recognize_pipeline+0xe6c>
d:\PDS\SparrowRV-master\bsp\bsp_app\obj/../app/main.c:450
        raw_x2[raw_count] = TARGET_W - 1; raw_w[raw_count] = TARGET_W - 1 - raw_x1[raw_count];
    2458:	00241693          	slli	a3,s0,0x2
    245c:	a1e017b7          	lui	a5,0xa1e01
    2460:	1b700713          	li	a4,439
    2464:	00d787b3          	add	a5,a5,a3
    2468:	00e7a023          	sw	a4,0(a5) # a1e01000 <_sp+0x81dc1000>
    246c:	a1e007b7          	lui	a5,0xa1e00
    2470:	00d787b3          	add	a5,a5,a3
    2474:	0007a603          	lw	a2,0(a5) # a1e00000 <_sp+0x81dc0000>
    2478:	a1e027b7          	lui	a5,0xa1e02
    247c:	00d787b3          	add	a5,a5,a3
    2480:	40c70733          	sub	a4,a4,a2
    2484:	00e7a023          	sw	a4,0(a5) # a1e02000 <_sp+0x81dc2000>
d:\PDS\SparrowRV-master\bsp\bsp_app\obj/../app/main.c:451
        if (raw_w[raw_count] >= 4) raw_count++;
    2488:	0007a703          	lw	a4,0(a5)
    248c:	00300793          	li	a5,3
    2490:	dce7dae3          	bge	a5,a4,2264 <car_plate_recognize_pipeline+0xc30>
d:\PDS\SparrowRV-master\bsp\bsp_app\obj/../app/main.c:451 (discriminator 1)
    2494:	00140793          	addi	a5,s0,1
d:\PDS\SparrowRV-master\bsp\bsp_app\obj/../app/main.c:458
        for(int i = 0; i < raw_count - 1; i++) {
    2498:	00040513          	mv	a0,s0
    249c:	00078413          	mv	s0,a5
    24a0:	287817b7          	lui	a5,0x28781
    24a4:	80078793          	addi	a5,a5,-2048 # 28780800 <_sp+0x8740800>
    24a8:	00f407b3          	add	a5,s0,a5
    24ac:	00279813          	slli	a6,a5,0x2
d:\PDS\SparrowRV-master\bsp\bsp_app\obj/../app/main.c:457
        for(int i = 0; i < raw_count; i++) sort_buf[i] = raw_w[i];
    24b0:	00004737          	lui	a4,0x4
d:\PDS\SparrowRV-master\bsp\bsp_app\obj/../app/main.c:458
        for(int i = 0; i < raw_count - 1; i++) {
    24b4:	a1e027b7          	lui	a5,0xa1e02
d:\PDS\SparrowRV-master\bsp\bsp_app\obj/../app/main.c:457 (discriminator 3)
        for(int i = 0; i < raw_count; i++) sort_buf[i] = raw_w[i];
    24b8:	0007a603          	lw	a2,0(a5) # a1e02000 <_sp+0x81dc2000>
    24bc:	00e786b3          	add	a3,a5,a4
    24c0:	00478793          	addi	a5,a5,4
    24c4:	00c6a023          	sw	a2,0(a3)
    24c8:	ff0798e3          	bne	a5,a6,24b8 <car_plate_recognize_pipeline+0xe84>
d:\PDS\SparrowRV-master\bsp\bsp_app\obj/../app/main.c:458
        for(int i = 0; i < raw_count - 1; i++) {
    24cc:	00100693          	li	a3,1
    24d0:	7ed40063          	beq	s0,a3,2cb0 <car_plate_recognize_pipeline+0x167c>
    24d4:	a1e067b7          	lui	a5,0xa1e06
    24d8:	00e80633          	add	a2,a6,a4
    24dc:	00478793          	addi	a5,a5,4 # a1e06004 <_sp+0x81dc6004>
    24e0:	00000693          	li	a3,0
d:\PDS\SparrowRV-master\bsp\bsp_app\obj/../app/main.c:459
            for(int j = i + 1; j < raw_count; j++) {
    24e4:	00168693          	addi	a3,a3,1
d:\PDS\SparrowRV-master\bsp\bsp_app\obj/../app/main.c:460
                if(sort_buf[i] > sort_buf[j]) {
    24e8:	ffc78593          	addi	a1,a5,-4
    24ec:	00078713          	mv	a4,a5
d:\PDS\SparrowRV-master\bsp\bsp_app\obj/../app/main.c:459
            for(int j = i + 1; j < raw_count; j++) {
    24f0:	0286d463          	bge	a3,s0,2518 <car_plate_recognize_pipeline+0xee4>
d:\PDS\SparrowRV-master\bsp\bsp_app\obj/../app/main.c:460
                if(sort_buf[i] > sort_buf[j]) {
    24f4:	0005a303          	lw	t1,0(a1)
    24f8:	00072883          	lw	a7,0(a4) # 4000 <__stack_size>
    24fc:	0068da63          	bge	a7,t1,2510 <car_plate_recognize_pipeline+0xedc>
d:\PDS\SparrowRV-master\bsp\bsp_app\obj/../app/main.c:461
                    int tmp = sort_buf[i];
    2500:	0005a883          	lw	a7,0(a1)
d:\PDS\SparrowRV-master\bsp\bsp_app\obj/../app/main.c:462
                    sort_buf[i] = sort_buf[j];
    2504:	00072303          	lw	t1,0(a4)
    2508:	0065a023          	sw	t1,0(a1)
d:\PDS\SparrowRV-master\bsp\bsp_app\obj/../app/main.c:463
                    sort_buf[j] = tmp;
    250c:	01172023          	sw	a7,0(a4)
d:\PDS\SparrowRV-master\bsp\bsp_app\obj/../app/main.c:459 (discriminator 2)
            for(int j = i + 1; j < raw_count; j++) {
    2510:	00470713          	addi	a4,a4,4
    2514:	fec710e3          	bne	a4,a2,24f4 <car_plate_recognize_pipeline+0xec0>
d:\PDS\SparrowRV-master\bsp\bsp_app\obj/../app/main.c:458
        for(int i = 0; i < raw_count - 1; i++) {
    2518:	00478793          	addi	a5,a5,4
    251c:	fca6c4e3          	blt	a3,a0,24e4 <car_plate_recognize_pipeline+0xeb0>
d:\PDS\SparrowRV-master\bsp\bsp_app\obj/../app/main.c:467
        median_w = sort_buf[raw_count >> 1];
    2520:	40145693          	srai	a3,s0,0x1
    2524:	00269693          	slli	a3,a3,0x2
    2528:	a1e06737          	lui	a4,0xa1e06
    252c:	00d70733          	add	a4,a4,a3
    2530:	00072783          	lw	a5,0(a4) # a1e06000 <_sp+0x81dc6000>
d:\PDS\SparrowRV-master\bsp\bsp_app\obj/../app/main.c:472
        int curr_x1 = raw_x1[0], curr_x2 = raw_x2[0], curr_w = raw_w[0];
    2534:	a1e00637          	lui	a2,0xa1e00
    2538:	00062583          	lw	a1,0(a2) # a1e00000 <_sp+0x81dc0000>
d:\PDS\SparrowRV-master\bsp\bsp_app\obj/../app/main.c:476
            if (((curr_w < ((median_w * 717) >> 10)) && (gap < ((median_w * 256) >> 10))) ||
    253c:	00879713          	slli	a4,a5,0x8
    2540:	40a75f13          	srai	t5,a4,0xa
d:\PDS\SparrowRV-master\bsp\bsp_app\obj/../app/main.c:472
        int curr_x1 = raw_x1[0], curr_x2 = raw_x2[0], curr_w = raw_w[0];
    2544:	a1e01737          	lui	a4,0xa1e01
    2548:	00072883          	lw	a7,0(a4) # a1e01000 <_sp+0x81dc1000>
    254c:	a1e02537          	lui	a0,0xa1e02
    2550:	ffffe737          	lui	a4,0xffffe
    2554:	00e80333          	add	t1,a6,a4
    2558:	00052f83          	lw	t6,0(a0) # a1e02000 <_sp+0x81dc2000>
d:\PDS\SparrowRV-master\bsp\bsp_app\obj/../app/main.c:476
            if (((curr_w < ((median_w * 717) >> 10)) && (gap < ((median_w * 256) >> 10))) ||
    255c:	2cd00693          	li	a3,717
d:\PDS\SparrowRV-master\bsp\bsp_app\obj/../app/main.c:477
                ((curr_x1 < (TARGET_W >> 2)) && (gap < ((median_w * 461) >> 10)) && (comb_w < ((median_w * 1434) >> 10)))) {
    2560:	1cd00713          	li	a4,461
    2564:	59a00513          	li	a0,1434
d:\PDS\SparrowRV-master\bsp\bsp_app\obj/../app/main.c:476
            if (((curr_w < ((median_w * 717) >> 10)) && (gap < ((median_w * 256) >> 10))) ||
    2568:	02d786b3          	mul	a3,a5,a3
d:\PDS\SparrowRV-master\bsp\bsp_app\obj/../app/main.c:477
                ((curr_x1 < (TARGET_W >> 2)) && (gap < ((median_w * 461) >> 10)) && (comb_w < ((median_w * 1434) >> 10)))) {
    256c:	00460813          	addi	a6,a2,4
d:\PDS\SparrowRV-master\bsp\bsp_app\obj/../app/main.c:470
    int m_count = 0;
    2570:	00000413          	li	s0,0
d:\PDS\SparrowRV-master\bsp\bsp_app\obj/../app/main.c:474
            int nxt_x1 = raw_x1[i], nxt_x2 = raw_x2[i], nxt_w = raw_w[i];
    2574:	00001ab7          	lui	s5,0x1
    2578:	00002a37          	lui	s4,0x2
d:\PDS\SparrowRV-master\bsp\bsp_app\obj/../app/main.c:476
            if (((curr_w < ((median_w * 717) >> 10)) && (gap < ((median_w * 256) >> 10))) ||
    257c:	06d00993          	li	s3,109
d:\PDS\SparrowRV-master\bsp\bsp_app\obj/../app/main.c:480
                if (m_count < 50) {
    2580:	03100093          	li	ra,49
d:\PDS\SparrowRV-master\bsp\bsp_app\obj/../app/main.c:481
                    merged_x1[m_count] = curr_x1; merged_x2[m_count] = curr_x2; merged_w[m_count] = curr_w;
    2584:	a1e033b7          	lui	t2,0xa1e03
    2588:	a1e04bb7          	lui	s7,0xa1e04
    258c:	a1e05b37          	lui	s6,0xa1e05
d:\PDS\SparrowRV-master\bsp\bsp_app\obj/../app/main.c:477
                ((curr_x1 < (TARGET_W >> 2)) && (gap < ((median_w * 461) >> 10)) && (comb_w < ((median_w * 1434) >> 10)))) {
    2590:	02e78733          	mul	a4,a5,a4
d:\PDS\SparrowRV-master\bsp\bsp_app\obj/../app/main.c:476
            if (((curr_w < ((median_w * 717) >> 10)) && (gap < ((median_w * 256) >> 10))) ||
    2594:	40a6d693          	srai	a3,a3,0xa
d:\PDS\SparrowRV-master\bsp\bsp_app\obj/../app/main.c:477
                ((curr_x1 < (TARGET_W >> 2)) && (gap < ((median_w * 461) >> 10)) && (comb_w < ((median_w * 1434) >> 10)))) {
    2598:	02a787b3          	mul	a5,a5,a0
    259c:	40a75e93          	srai	t4,a4,0xa
    25a0:	40a7d793          	srai	a5,a5,0xa
d:\PDS\SparrowRV-master\bsp\bsp_app\obj/../app/main.c:474
            int nxt_x1 = raw_x1[i], nxt_x2 = raw_x2[i], nxt_w = raw_w[i];
    25a4:	01580733          	add	a4,a6,s5
    25a8:	00082603          	lw	a2,0(a6)
    25ac:	00088293          	mv	t0,a7
    25b0:	00072883          	lw	a7,0(a4) # ffffe000 <_sp+0xdffbe000>
    25b4:	01480733          	add	a4,a6,s4
    25b8:	00072503          	lw	a0,0(a4)
d:\PDS\SparrowRV-master\bsp\bsp_app\obj/../app/main.c:475
            int gap = nxt_x1 - curr_x2, comb_w = nxt_x2 - curr_x1 + 1;
    25bc:	40b88e33          	sub	t3,a7,a1
    25c0:	001e0e13          	addi	t3,t3,1
    25c4:	40560c33          	sub	s8,a2,t0
d:\PDS\SparrowRV-master\bsp\bsp_app\obj/../app/main.c:476
            if (((curr_w < ((median_w * 717) >> 10)) && (gap < ((median_w * 256) >> 10))) ||
    25c8:	00dfd463          	bge	t6,a3,25d0 <car_plate_recognize_pipeline+0xf9c>
d:\PDS\SparrowRV-master\bsp\bsp_app\obj/../app/main.c:476 (discriminator 1)
    25cc:	03ec4063          	blt	s8,t5,25ec <car_plate_recognize_pipeline+0xfb8>
d:\PDS\SparrowRV-master\bsp\bsp_app\obj/../app/main.c:481 (discriminator 3)
                    merged_x1[m_count] = curr_x1; merged_x2[m_count] = curr_x2; merged_w[m_count] = curr_w;
    25d0:	00241713          	slli	a4,s0,0x2
    25d4:	00e38d33          	add	s10,t2,a4
    25d8:	00eb8cb3          	add	s9,s7,a4
    25dc:	00eb0733          	add	a4,s6,a4
d:\PDS\SparrowRV-master\bsp\bsp_app\obj/../app/main.c:476 (discriminator 3)
            if (((curr_w < ((median_w * 717) >> 10)) && (gap < ((median_w * 256) >> 10))) ||
    25e0:	0ab9c663          	blt	s3,a1,268c <car_plate_recognize_pipeline+0x1058>
d:\PDS\SparrowRV-master\bsp\bsp_app\obj/../app/main.c:477
                ((curr_x1 < (TARGET_W >> 2)) && (gap < ((median_w * 461) >> 10)) && (comb_w < ((median_w * 1434) >> 10)))) {
    25e4:	0bdc5463          	bge	s8,t4,268c <car_plate_recognize_pipeline+0x1058>
d:\PDS\SparrowRV-master\bsp\bsp_app\obj/../app/main.c:477 (discriminator 1)
    25e8:	0afe5263          	bge	t3,a5,268c <car_plate_recognize_pipeline+0x1058>
d:\PDS\SparrowRV-master\bsp\bsp_app\obj/../app/main.c:473 (discriminator 2)
        for (int i = 1; i < raw_count; i++) {
    25ec:	00480813          	addi	a6,a6,4
    25f0:	0d030063          	beq	t1,a6,26b0 <car_plate_recognize_pipeline+0x107c>
    25f4:	000e0f93          	mv	t6,t3
    25f8:	fadff06f          	j	25a4 <car_plate_recognize_pipeline+0xf70>
get_min():
d:\PDS\SparrowRV-master\bsp\bsp_app\obj/../app/main.c:52
int get_min(int a, int b) { return a < b ? a : b; }
    25fc:	08b00493          	li	s1,139
    2600:	a7dff06f          	j	207c <car_plate_recognize_pipeline+0xa48>
    2604:	00e12423          	sw	a4,8(sp)
    2608:	c78ff06f          	j	1a80 <car_plate_recognize_pipeline+0x44c>
car_plate_recognize_pipeline():
d:\PDS\SparrowRV-master\bsp\bsp_app\obj/../app/main.c:281
    int end_y = get_min(IMG_H - 1, best_y_bot + 5);
    260c:	005d8713          	addi	a4,s11,5
    2610:	00070693          	mv	a3,a4
    2614:	00e12423          	sw	a4,8(sp)
get_min():
d:\PDS\SparrowRV-master\bsp\bsp_app\obj/../app/main.c:52
int get_min(int a, int b) { return a < b ? a : b; }
    2618:	2cf00713          	li	a4,719
    261c:	4ff00d13          	li	s10,1279
    2620:	c6d75063          	bge	a4,a3,1a80 <car_plate_recognize_pipeline+0x44c>
    2624:	fe1ff06f          	j	2604 <car_plate_recognize_pipeline+0xfd0>
    2628:	000b0c93          	mv	s9,s6
get_max():
d:\PDS\SparrowRV-master\bsp\bsp_app\obj/../app/main.c:51
int get_max(int a, int b) { return a > b ? a : b; }
    262c:	00098d93          	mv	s11,s3
    2630:	aa99d863          	bge	s3,s1,18e0 <car_plate_recognize_pipeline+0x2ac>
    2634:	03c0006f          	j	2670 <car_plate_recognize_pipeline+0x103c>
car_plate_recognize_pipeline():
d:\PDS\SparrowRV-master\bsp\bsp_app\obj/../app/main.c:231 (discriminator 1)
        if(cur_w > max_w && cur_w > 50 && cur_w < 800) { x_min = cur_x_min; x_max = BIN_IMG_W - ROI_MARGIN_X - gap_count; }
    2638:	fcd78793          	addi	a5,a5,-51
    263c:	2ec00713          	li	a4,748
    2640:	9af76a63          	bltu	a4,a5,17f4 <car_plate_recognize_pipeline+0x1c0>
    2644:	00050913          	mv	s2,a0
    2648:	9bcff06f          	j	1804 <car_plate_recognize_pipeline+0x1d0>
d:\PDS\SparrowRV-master\bsp\bsp_app\obj/../app/main.c:279
    int start_y = get_max(0, best_y_top - 5);
    264c:	ffbc8c93          	addi	s9,s9,-5 # fefffffb <_sp+0xdefbfffb>
get_max():
d:\PDS\SparrowRV-master\bsp\bsp_app\obj/../app/main.c:51
int get_max(int a, int b) { return a > b ? a : b; }
    2650:	fffcc713          	not	a4,s9
get_min():
d:\PDS\SparrowRV-master\bsp\bsp_app\obj/../app/main.c:52
int get_min(int a, int b) { return a < b ? a : b; }
    2654:	000a0793          	mv	a5,s4
get_max():
d:\PDS\SparrowRV-master\bsp\bsp_app\obj/../app/main.c:51
int get_max(int a, int b) { return a > b ? a : b; }
    2658:	41f75713          	srai	a4,a4,0x1f
car_plate_recognize_pipeline():
d:\PDS\SparrowRV-master\bsp\bsp_app\obj/../app/main.c:278
    int start_x = get_max(0, best_x_left - 5);
    265c:	ffb78c13          	addi	s8,a5,-5
get_max():
d:\PDS\SparrowRV-master\bsp\bsp_app\obj/../app/main.c:51
int get_max(int a, int b) { return a > b ? a : b; }
    2660:	00ecfcb3          	and	s9,s9,a4
    2664:	000a8d13          	mv	s10,s5
    2668:	be8adc63          	bge	s5,s0,1a60 <car_plate_recognize_pipeline+0x42c>
    266c:	00c0006f          	j	2678 <car_plate_recognize_pipeline+0x1044>
    2670:	00048d93          	mv	s11,s1
    2674:	a6cff06f          	j	18e0 <car_plate_recognize_pipeline+0x2ac>
    2678:	00040d13          	mv	s10,s0
car_plate_recognize_pipeline():
d:\PDS\SparrowRV-master\bsp\bsp_app\obj/../app/main.c:280
    int end_x = get_min(RAW_IMG_W - 1, best_x_right + 5);
    267c:	005d0d13          	addi	s10,s10,5
get_min():
d:\PDS\SparrowRV-master\bsp\bsp_app\obj/../app/main.c:52
int get_min(int a, int b) { return a < b ? a : b; }
    2680:	4ff00713          	li	a4,1279
    2684:	bfa75463          	bge	a4,s10,1a6c <car_plate_recognize_pipeline+0x438>
    2688:	f85ff06f          	j	260c <car_plate_recognize_pipeline+0xfd8>
car_plate_recognize_pipeline():
d:\PDS\SparrowRV-master\bsp\bsp_app\obj/../app/main.c:480
                if (m_count < 50) {
    268c:	5480c263          	blt	ra,s0,2bd0 <car_plate_recognize_pipeline+0x159c>
d:\PDS\SparrowRV-master\bsp\bsp_app\obj/../app/main.c:481
                    merged_x1[m_count] = curr_x1; merged_x2[m_count] = curr_x2; merged_w[m_count] = curr_w;
    2690:	00bd2023          	sw	a1,0(s10)
    2694:	005ca023          	sw	t0,0(s9)
    2698:	01f72023          	sw	t6,0(a4)
d:\PDS\SparrowRV-master\bsp\bsp_app\obj/../app/main.c:473
        for (int i = 1; i < raw_count; i++) {
    269c:	00480813          	addi	a6,a6,4
d:\PDS\SparrowRV-master\bsp\bsp_app\obj/../app/main.c:482
                    m_count++; 
    26a0:	00140413          	addi	s0,s0,1
d:\PDS\SparrowRV-master\bsp\bsp_app\obj/../app/main.c:484
                curr_x1 = nxt_x1; curr_x2 = nxt_x2; curr_w = nxt_w;
    26a4:	00050e13          	mv	t3,a0
    26a8:	00060593          	mv	a1,a2
d:\PDS\SparrowRV-master\bsp\bsp_app\obj/../app/main.c:473
        for (int i = 1; i < raw_count; i++) {
    26ac:	f50314e3          	bne	t1,a6,25f4 <car_plate_recognize_pipeline+0xfc0>
d:\PDS\SparrowRV-master\bsp\bsp_app\obj/../app/main.c:487
        if (m_count < 50) {
    26b0:	03100793          	li	a5,49
    26b4:	5a87d463          	bge	a5,s0,2c5c <car_plate_recognize_pipeline+0x1628>
d:\PDS\SparrowRV-master\bsp\bsp_app\obj/../app/main.c:493
    printf(" >> 切割完成！共切出候选字符模块数量: %d\r\n", m_count);
    26b8:	20000537          	lui	a0,0x20000
    26bc:	00040593          	mv	a1,s0
    26c0:	41850513          	addi	a0,a0,1048 # 20000418 <_data+0x418>
    26c4:	f21fe0ef          	jal	ra,15e4 <printf_>
d:\PDS\SparrowRV-master\bsp\bsp_app\obj/../app/main.c:498
    printf("[阶段 6/6] 送入模板匹配识别！\r\n识别结果: ");
    26c8:	20000537          	lui	a0,0x20000
d:\PDS\SparrowRV-master\bsp\bsp_app\obj/../app/main.c:500
    int match_roi_h = y_bot - y_top + 1;
    26cc:	412484b3          	sub	s1,s1,s2
d:\PDS\SparrowRV-master\bsp\bsp_app\obj/../app/main.c:498
    printf("[阶段 6/6] 送入模板匹配识别！\r\n识别结果: ");
    26d0:	45450513          	addi	a0,a0,1108 # 20000454 <_data+0x454>
d:\PDS\SparrowRV-master\bsp\bsp_app\obj/../app/main.c:500
    int match_roi_h = y_bot - y_top + 1;
    26d4:	00148b93          	addi	s7,s1,1
d:\PDS\SparrowRV-master\bsp\bsp_app\obj/../app/main.c:498
    printf("[阶段 6/6] 送入模板匹配识别！\r\n识别结果: ");
    26d8:	f0dfe0ef          	jal	ra,15e4 <printf_>
process_and_match_mem():
d:\PDS\SparrowRV-master\bsp\bsp_app\obj/../app/main.c:112
    if (char_w < 4 || (char_w * 1000 < char_h * 150) || (char_w * 1000 > char_h * 1500)) return 0;
    26dc:	09600793          	li	a5,150
    26e0:	02fb87b3          	mul	a5,s7,a5
    26e4:	a1e03b37          	lui	s6,0xa1e03
car_plate_recognize_pipeline():
d:\PDS\SparrowRV-master\bsp\bsp_app\obj/../app/main.c:502
    for (int i = 0; i < m_count; i++) {
    26e8:	00000c13          	li	s8,0
d:\PDS\SparrowRV-master\bsp\bsp_app\obj/../app/main.c:499
    int valid_char_count = 0;
    26ec:	00000a93          	li	s5,0
safe_div():
d:\PDS\SparrowRV-master\bsp\bsp_app\obj/../app/main.c:58
    while (num >= den) {
    26f0:	00f00993          	li	s3,15
d:\PDS\SparrowRV-master\bsp\bsp_app\obj/../app/main.c:61
        while (num >= (temp << 1) && (temp << 1) > temp) {
    26f4:	01f00493          	li	s1,31
process_and_match_mem():
d:\PDS\SparrowRV-master\bsp\bsp_app\obj/../app/main.c:112
    if (char_w < 4 || (char_w * 1000 < char_h * 150) || (char_w * 1000 > char_h * 1500)) return 0;
    26f8:	00812823          	sw	s0,16(sp)
    26fc:	00f12623          	sw	a5,12(sp)
    2700:	5dc00793          	li	a5,1500
    2704:	02fb8d33          	mul	s10,s7,a5
car_plate_recognize_pipeline():
d:\PDS\SparrowRV-master\bsp\bsp_app\obj/../app/main.c:503
        int x1 = merged_x1[i], cw = merged_w[i];
    2708:	000027b7          	lui	a5,0x2
    270c:	00fb07b3          	add	a5,s6,a5
    2710:	000b2e03          	lw	t3,0(s6) # a1e03000 <_sp+0x81dc3000>
    2714:	0007ae83          	lw	t4,0(a5) # 2000 <car_plate_recognize_pipeline+0x9cc>
process_and_match_mem():
d:\PDS\SparrowRV-master\bsp\bsp_app\obj/../app/main.c:111
    if (char_h == 0) return 0;
    2718:	2a0b8c63          	beqz	s7,29d0 <car_plate_recognize_pipeline+0x139c>
d:\PDS\SparrowRV-master\bsp\bsp_app\obj/../app/main.c:112
    if (char_w < 4 || (char_w * 1000 < char_h * 150) || (char_w * 1000 > char_h * 1500)) return 0;
    271c:	00300793          	li	a5,3
    2720:	2bd7d863          	bge	a5,t4,29d0 <car_plate_recognize_pipeline+0x139c>
    2724:	3e800793          	li	a5,1000
    2728:	02fe87b3          	mul	a5,t4,a5
    272c:	00c12703          	lw	a4,12(sp)
    2730:	2ae7c063          	blt	a5,a4,29d0 <car_plate_recognize_pipeline+0x139c>
    2734:	28fd4e63          	blt	s10,a5,29d0 <car_plate_recognize_pipeline+0x139c>
    2738:	a1b00f37          	lui	t5,0xa1b00
    273c:	00000893          	li	a7,0
    2740:	00000613          	li	a2,0
d:\PDS\SparrowRV-master\bsp\bsp_app\obj/../app/main.c:116
    for (int y = 0; y < TPL_H; y++) {
    2744:	00000693          	li	a3,0
    2748:	010f0393          	addi	t2,t5,16 # a1b00010 <_sp+0x81ac0010>
safe_div():
d:\PDS\SparrowRV-master\bsp\bsp_app\obj/../app/main.c:61
        while (num >= (temp << 1) && (temp << 1) > temp) {
    274c:	03f00813          	li	a6,63
process_and_match_mem():
d:\PDS\SparrowRV-master\bsp\bsp_app\obj/../app/main.c:116
    for (int y = 0; y < TPL_H; y++) {
    2750:	02000413          	li	s0,32
d:\PDS\SparrowRV-master\bsp\bsp_app\obj/../app/main.c:117
        for (int x = 0; x < TPL_W; x++) {
    2754:	00469793          	slli	a5,a3,0x4
    2758:	01e60733          	add	a4,a2,t5
    275c:	fff68093          	addi	ra,a3,-1
    2760:	40f602b3          	sub	t0,a2,a5
    2764:	00778a33          	add	s4,a5,t2
car_plate_recognize_pipeline():
d:\PDS\SparrowRV-master\bsp\bsp_app\obj/../app/main.c:499
    int valid_char_count = 0;
    2768:	00000313          	li	t1,0
process_and_match_mem():
d:\PDS\SparrowRV-master\bsp\bsp_app\obj/../app/main.c:118
            int src_x = char_x + safe_div(x * char_w, TPL_W);
    276c:	00030c93          	mv	s9,t1
safe_div():
d:\PDS\SparrowRV-master\bsp\bsp_app\obj/../app/main.c:57
    int res = 0;
    2770:	00000793          	li	a5,0
d:\PDS\SparrowRV-master\bsp\bsp_app\obj/../app/main.c:58
    while (num >= den) {
    2774:	4269d463          	bge	s3,t1,2b9c <car_plate_recognize_pipeline+0x1568>
d:\PDS\SparrowRV-master\bsp\bsp_app\obj/../app/main.c:61
        while (num >= (temp << 1) && (temp << 1) > temp) {
    2778:	4594d663          	bge	s1,s9,2bc4 <car_plate_recognize_pipeline+0x1590>
    277c:	01a00513          	li	a0,26
    2780:	02000593          	li	a1,32
d:\PDS\SparrowRV-master\bsp\bsp_app\obj/../app/main.c:60
        int multiple = 1;
    2784:	00100f93          	li	t6,1
    2788:	0080006f          	j	2790 <car_plate_recognize_pipeline+0x115c>
d:\PDS\SparrowRV-master\bsp\bsp_app\obj/../app/main.c:61
        while (num >= (temp << 1) && (temp << 1) > temp) {
    278c:	00050c63          	beqz	a0,27a4 <car_plate_recognize_pipeline+0x1170>
d:\PDS\SparrowRV-master\bsp\bsp_app\obj/../app/main.c:63
            multiple <<= 1;
    2790:	00058d93          	mv	s11,a1
d:\PDS\SparrowRV-master\bsp\bsp_app\obj/../app/main.c:61
        while (num >= (temp << 1) && (temp << 1) > temp) {
    2794:	00159593          	slli	a1,a1,0x1
    2798:	fff50513          	addi	a0,a0,-1
d:\PDS\SparrowRV-master\bsp\bsp_app\obj/../app/main.c:63
            multiple <<= 1;
    279c:	001f9f93          	slli	t6,t6,0x1
d:\PDS\SparrowRV-master\bsp\bsp_app\obj/../app/main.c:61
        while (num >= (temp << 1) && (temp << 1) > temp) {
    27a0:	febcd6e3          	bge	s9,a1,278c <car_plate_recognize_pipeline+0x1158>
d:\PDS\SparrowRV-master\bsp\bsp_app\obj/../app/main.c:65
        num -= temp;
    27a4:	41bc8cb3          	sub	s9,s9,s11
d:\PDS\SparrowRV-master\bsp\bsp_app\obj/../app/main.c:66
        res += multiple;
    27a8:	01f787b3          	add	a5,a5,t6
d:\PDS\SparrowRV-master\bsp\bsp_app\obj/../app/main.c:58
    while (num >= den) {
    27ac:	fd99c6e3          	blt	s3,s9,2778 <car_plate_recognize_pipeline+0x1144>
process_and_match_mem():
d:\PDS\SparrowRV-master\bsp\bsp_app\obj/../app/main.c:118
            int src_x = char_x + safe_div(x * char_w, TPL_W);
    27b0:	00fe07b3          	add	a5,t3,a5
safe_div():
d:\PDS\SparrowRV-master\bsp\bsp_app\obj/../app/main.c:58
    while (num >= den) {
    27b4:	00088f93          	mv	t6,a7
d:\PDS\SparrowRV-master\bsp\bsp_app\obj/../app/main.c:57
    int res = 0;
    27b8:	00000c93          	li	s9,0
d:\PDS\SparrowRV-master\bsp\bsp_app\obj/../app/main.c:58
    while (num >= den) {
    27bc:	3f14d863          	bge	s1,a7,2bac <car_plate_recognize_pipeline+0x1578>
    27c0:	00612423          	sw	t1,8(sp)
d:\PDS\SparrowRV-master\bsp\bsp_app\obj/../app/main.c:61
        while (num >= (temp << 1) && (temp << 1) > temp) {
    27c4:	3ff85863          	bge	a6,t6,2bb4 <car_plate_recognize_pipeline+0x1580>
    27c8:	01900513          	li	a0,25
    27cc:	04000593          	li	a1,64
d:\PDS\SparrowRV-master\bsp\bsp_app\obj/../app/main.c:60
        int multiple = 1;
    27d0:	00100313          	li	t1,1
    27d4:	0080006f          	j	27dc <car_plate_recognize_pipeline+0x11a8>
d:\PDS\SparrowRV-master\bsp\bsp_app\obj/../app/main.c:61
        while (num >= (temp << 1) && (temp << 1) > temp) {
    27d8:	00050c63          	beqz	a0,27f0 <car_plate_recognize_pipeline+0x11bc>
d:\PDS\SparrowRV-master\bsp\bsp_app\obj/../app/main.c:63
            multiple <<= 1;
    27dc:	00058d93          	mv	s11,a1
d:\PDS\SparrowRV-master\bsp\bsp_app\obj/../app/main.c:61
        while (num >= (temp << 1) && (temp << 1) > temp) {
    27e0:	00159593          	slli	a1,a1,0x1
    27e4:	fff50513          	addi	a0,a0,-1
d:\PDS\SparrowRV-master\bsp\bsp_app\obj/../app/main.c:63
            multiple <<= 1;
    27e8:	00131313          	slli	t1,t1,0x1
d:\PDS\SparrowRV-master\bsp\bsp_app\obj/../app/main.c:61
        while (num >= (temp << 1) && (temp << 1) > temp) {
    27ec:	febfd6e3          	bge	t6,a1,27d8 <car_plate_recognize_pipeline+0x11a4>
d:\PDS\SparrowRV-master\bsp\bsp_app\obj/../app/main.c:65
        num -= temp;
    27f0:	41bf8fb3          	sub	t6,t6,s11
d:\PDS\SparrowRV-master\bsp\bsp_app\obj/../app/main.c:66
        res += multiple;
    27f4:	006c8cb3          	add	s9,s9,t1
d:\PDS\SparrowRV-master\bsp\bsp_app\obj/../app/main.c:58
    while (num >= den) {
    27f8:	fdf4c6e3          	blt	s1,t6,27c4 <car_plate_recognize_pipeline+0x1190>
process_and_match_mem():
d:\PDS\SparrowRV-master\bsp\bsp_app\obj/../app/main.c:119
            int src_y = char_y + safe_div(y * char_h, TPL_H);
    27fc:	00812303          	lw	t1,8(sp)
    2800:	01990cb3          	add	s9,s2,s9
d:\PDS\SparrowRV-master\bsp\bsp_app\obj/../app/main.c:121
            if (y < 1 || y > TPL_H - 2) {
    2804:	01d00593          	li	a1,29
    2808:	5015e663          	bltu	a1,ra,2d14 <car_plate_recognize_pipeline+0x16e0>
d:\PDS\SparrowRV-master\bsp\bsp_app\obj/../app/main.c:124
                int base_idx = src_y * (target_w >> 2) + (src_x >> 2);
    280c:	06e00593          	li	a1,110
    2810:	02bc85b3          	mul	a1,s9,a1
    2814:	4027d513          	srai	a0,a5,0x2
d:\PDS\SparrowRV-master\bsp\bsp_app\obj/../app/main.c:125
                int k = src_x & 3;
    2818:	0037f793          	andi	a5,a5,3
d:\PDS\SparrowRV-master\bsp\bsp_app\obj/../app/main.c:124
                int base_idx = src_y * (target_w >> 2) + (src_x >> 2);
    281c:	00a585b3          	add	a1,a1,a0
d:\PDS\SparrowRV-master\bsp\bsp_app\obj/../app/main.c:126
                uint32_t word = bw_word[base_idx];
    2820:	00259593          	slli	a1,a1,0x2
    2824:	a1a00537          	lui	a0,0xa1a00
    2828:	00b505b3          	add	a1,a0,a1
    282c:	0005a503          	lw	a0,0(a1)
d:\PDS\SparrowRV-master\bsp\bsp_app\obj/../app/main.c:127
                for(volatile int nop=0; nop<1; nop++); 
    2830:	06012623          	sw	zero,108(sp)
    2834:	06c12583          	lw	a1,108(sp)
    2838:	00b04c63          	bgtz	a1,2850 <car_plate_recognize_pipeline+0x121c>
    283c:	06c12583          	lw	a1,108(sp)
    2840:	00158593          	addi	a1,a1,1
    2844:	06b12623          	sw	a1,108(sp)
    2848:	06c12583          	lw	a1,108(sp)
    284c:	feb058e3          	blez	a1,283c <car_plate_recognize_pipeline+0x1208>
d:\PDS\SparrowRV-master\bsp\bsp_app\obj/../app/main.c:128
                uint8_t p = (word >> (k * 8)) & 0xFF;
    2850:	00379793          	slli	a5,a5,0x3
    2854:	00f557b3          	srl	a5,a0,a5
d:\PDS\SparrowRV-master\bsp\bsp_app\obj/../app/main.c:129
                test_image[y * TPL_W + x] = (p > 128) ? 1 : 0;
    2858:	0ff7f793          	zext.b	a5,a5
    285c:	0817b793          	sltiu	a5,a5,129
    2860:	00e285b3          	add	a1,t0,a4
    2864:	0017c793          	xori	a5,a5,1
    2868:	00f58023          	sb	a5,0(a1)
d:\PDS\SparrowRV-master\bsp\bsp_app\obj/../app/main.c:117
        for (int x = 0; x < TPL_W; x++) {
    286c:	00170713          	addi	a4,a4,1
    2870:	01d30333          	add	t1,t1,t4
    2874:	eeea1ce3          	bne	s4,a4,276c <car_plate_recognize_pipeline+0x1138>
d:\PDS\SparrowRV-master\bsp\bsp_app\obj/../app/main.c:116
    for (int y = 0; y < TPL_H; y++) {
    2878:	00168693          	addi	a3,a3,1
    287c:	01060613          	addi	a2,a2,16
    2880:	017888b3          	add	a7,a7,s7
    2884:	ec8698e3          	bne	a3,s0,2754 <car_plate_recognize_pipeline+0x1120>
d:\PDS\SparrowRV-master\bsp\bsp_app\obj/../app/main.c:137
    for (int i = 0; i < num_templates; i++) {
    2888:	8081ae03          	lw	t3,-2040(gp) # 20021a80 <num_templates>
    288c:	15c05263          	blez	t3,29d0 <car_plate_recognize_pipeline+0x139c>
car_plate_recognize_pipeline():
d:\PDS\SparrowRV-master\bsp\bsp_app\obj/../app/main.c:504
        int expected_pos = valid_char_count + 1;
    2890:	001a8413          	addi	s0,s5,1 # 1001 <_vsnprintf+0x7e5>
    2894:	20022cb7          	lui	s9,0x20022
process_and_match_mem():
d:\PDS\SparrowRV-master\bsp\bsp_app\obj/../app/main.c:135
    int best_id = -1;
    2898:	fff00593          	li	a1,-1
d:\PDS\SparrowRV-master\bsp\bsp_app\obj/../app/main.c:134
    long max_score = -10000;
    289c:	ffffedb7          	lui	s11,0xffffe
d:\PDS\SparrowRV-master\bsp\bsp_app\obj/../app/main.c:137
    for (int i = 0; i < num_templates; i++) {
    28a0:	00000813          	li	a6,0
d:\PDS\SparrowRV-master\bsp\bsp_app\obj/../app/main.c:148
        for (int j = 0; j < TPL_W * TPL_H; j++) {
    28a4:	a1b00337          	lui	t1,0xa1b00
    28a8:	868c8893          	addi	a7,s9,-1944 # 20021868 <template_lib>
    28ac:	01212423          	sw	s2,8(sp)
    28b0:	01a12a23          	sw	s10,20(sp)
    28b4:	00040913          	mv	s2,s0
    28b8:	000c0d13          	mv	s10,s8
    28bc:	01712c23          	sw	s7,24(sp)
    28c0:	000a8c13          	mv	s8,s5
    28c4:	000b0b93          	mv	s7,s6
    28c8:	868c8c93          	addi	s9,s9,-1944
d:\PDS\SparrowRV-master\bsp\bsp_app\obj/../app/main.c:134
    long max_score = -10000;
    28cc:	8f0d8d93          	addi	s11,s11,-1808 # ffffd8f0 <_sp+0xdffbd8f0>
d:\PDS\SparrowRV-master\bsp\bsp_app\obj/../app/main.c:149
            for(volatile int nop=0; nop<2; nop++); 
    28d0:	00100a13          	li	s4,1
d:\PDS\SparrowRV-master\bsp\bsp_app\obj/../app/main.c:148
        for (int j = 0; j < TPL_W * TPL_H; j++) {
    28d4:	20030313          	addi	t1,t1,512 # a1b00200 <_sp+0x81ac0200>
    28d8:	000e0a93          	mv	s5,t3
    28dc:	00080413          	mv	s0,a6
    28e0:	00058b13          	mv	s6,a1
    28e4:	0140006f          	j	28f8 <car_plate_recognize_pipeline+0x12c4>
d:\PDS\SparrowRV-master\bsp\bsp_app\obj/../app/main.c:144
            if (name_len > 1) continue;  
    28e8:	05478063          	beq	a5,s4,2928 <car_plate_recognize_pipeline+0x12f4>
d:\PDS\SparrowRV-master\bsp\bsp_app\obj/../app/main.c:137
    for (int i = 0; i < num_templates; i++) {
    28ec:	00140413          	addi	s0,s0,1
    28f0:	008c8c93          	addi	s9,s9,8
    28f4:	088a8c63          	beq	s5,s0,298c <car_plate_recognize_pipeline+0x1358>
d:\PDS\SparrowRV-master\bsp\bsp_app\obj/../app/main.c:139
        while (template_lib[i].name[name_len] != '\0') name_len++;
    28f8:	000ca503          	lw	a0,0(s9)
    28fc:	00054783          	lbu	a5,0(a0) # a1a00000 <_sp+0x819c0000>
    2900:	2e078e63          	beqz	a5,2bfc <car_plate_recognize_pipeline+0x15c8>
    2904:	00150513          	addi	a0,a0,1
    2908:	434010ef          	jal	ra,3d3c <strlen>
d:\PDS\SparrowRV-master\bsp\bsp_app\obj/../app/main.c:141
        if (expected_pos == 1) {
    290c:	20022737          	lui	a4,0x20022
    2910:	86870893          	addi	a7,a4,-1944 # 20021868 <template_lib>
    2914:	a1b00737          	lui	a4,0xa1b00
    2918:	00150793          	addi	a5,a0,1
    291c:	20070313          	addi	t1,a4,512 # a1b00200 <_sp+0x81ac0200>
    2920:	fd4914e3          	bne	s2,s4,28e8 <car_plate_recognize_pipeline+0x12b4>
d:\PDS\SparrowRV-master\bsp\bsp_app\obj/../app/main.c:142
            if (name_len <= 1) continue; 
    2924:	fd2784e3          	beq	a5,s2,28ec <car_plate_recognize_pipeline+0x12b8>
    2928:	004ca603          	lw	a2,4(s9)
d:\PDS\SparrowRV-master\bsp\bsp_app\obj/../app/main.c:150
            if (test_image[j] == template_lib[i].data[j]) {
    292c:	a1b006b7          	lui	a3,0xa1b00
    2930:	00000713          	li	a4,0
d:\PDS\SparrowRV-master\bsp\bsp_app\obj/../app/main.c:149
            for(volatile int nop=0; nop<2; nop++); 
    2934:	06012823          	sw	zero,112(sp)
    2938:	07012783          	lw	a5,112(sp)
    293c:	00fa4c63          	blt	s4,a5,2954 <car_plate_recognize_pipeline+0x1320>
    2940:	07012783          	lw	a5,112(sp)
    2944:	00178793          	addi	a5,a5,1
    2948:	06f12823          	sw	a5,112(sp)
    294c:	07012783          	lw	a5,112(sp)
    2950:	fefa58e3          	bge	s4,a5,2940 <car_plate_recognize_pipeline+0x130c>
d:\PDS\SparrowRV-master\bsp\bsp_app\obj/../app/main.c:150
            if (test_image[j] == template_lib[i].data[j]) {
    2954:	0006c503          	lbu	a0,0(a3) # a1b00000 <_sp+0x81ac0000>
    2958:	00062783          	lw	a5,0(a2)
    295c:	28f50063          	beq	a0,a5,2bdc <car_plate_recognize_pipeline+0x15a8>
d:\PDS\SparrowRV-master\bsp\bsp_app\obj/../app/main.c:154
                if (template_lib[i].data[j] == 1) current_score -= 5;
    2960:	29478663          	beq	a5,s4,2bec <car_plate_recognize_pipeline+0x15b8>
d:\PDS\SparrowRV-master\bsp\bsp_app\obj/../app/main.c:155
                else current_score -= 10;
    2964:	ff670713          	addi	a4,a4,-10
d:\PDS\SparrowRV-master\bsp\bsp_app\obj/../app/main.c:148
        for (int j = 0; j < TPL_W * TPL_H; j++) {
    2968:	00168693          	addi	a3,a3,1
    296c:	00460613          	addi	a2,a2,4
    2970:	fc6692e3          	bne	a3,t1,2934 <car_plate_recognize_pipeline+0x1300>
d:\PDS\SparrowRV-master\bsp\bsp_app\obj/../app/main.c:159
        if (current_score > max_score) {
    2974:	f6eddce3          	bge	s11,a4,28ec <car_plate_recognize_pipeline+0x12b8>
    2978:	00040b13          	mv	s6,s0
d:\PDS\SparrowRV-master\bsp\bsp_app\obj/../app/main.c:137
    for (int i = 0; i < num_templates; i++) {
    297c:	00140413          	addi	s0,s0,1
    2980:	00070d93          	mv	s11,a4
    2984:	008c8c93          	addi	s9,s9,8
    2988:	f68a98e3          	bne	s5,s0,28f8 <car_plate_recognize_pipeline+0x12c4>
d:\PDS\SparrowRV-master\bsp\bsp_app\obj/../app/main.c:165
    if (max_score < 100) return 0; 
    298c:	06300793          	li	a5,99
    2990:	000c0a93          	mv	s5,s8
    2994:	00090413          	mv	s0,s2
    2998:	000d0c13          	mv	s8,s10
    299c:	000b0593          	mv	a1,s6
    29a0:	00812903          	lw	s2,8(sp)
    29a4:	000b8b13          	mv	s6,s7
    29a8:	01412d03          	lw	s10,20(sp)
    29ac:	01812b83          	lw	s7,24(sp)
    29b0:	03b7d063          	bge	a5,s11,29d0 <car_plate_recognize_pipeline+0x139c>
d:\PDS\SparrowRV-master\bsp\bsp_app\obj/../app/main.c:168
    printf(" [%s] ", template_lib[best_id].name);
    29b4:	00359593          	slli	a1,a1,0x3
    29b8:	00b888b3          	add	a7,a7,a1
    29bc:	0008a583          	lw	a1,0(a7)
    29c0:	20000537          	lui	a0,0x20000
    29c4:	07850513          	addi	a0,a0,120 # 20000078 <_data+0x78>
    29c8:	c1dfe0ef          	jal	ra,15e4 <printf_>
car_plate_recognize_pipeline():
d:\PDS\SparrowRV-master\bsp\bsp_app\obj/../app/main.c:508
            valid_char_count++;
    29cc:	00040a93          	mv	s5,s0
d:\PDS\SparrowRV-master\bsp\bsp_app\obj/../app/main.c:502 (discriminator 2)
    for (int i = 0; i < m_count; i++) {
    29d0:	01012783          	lw	a5,16(sp)
    29d4:	001c0c13          	addi	s8,s8,1 # ffff0001 <_sp+0xdffb0001>
    29d8:	004b0b13          	addi	s6,s6,4
    29dc:	d2fc46e3          	blt	s8,a5,2708 <car_plate_recognize_pipeline+0x10d4>
d:\PDS\SparrowRV-master\bsp\bsp_app\obj/../app/main.c:511
    printf("\r\n"); 
    29e0:	20000537          	lui	a0,0x20000
    29e4:	26850513          	addi	a0,a0,616 # 20000268 <_data+0x268>
    29e8:	bfdfe0ef          	jal	ra,15e4 <printf_>
set_led5_status():
d:\PDS\SparrowRV-master\bsp\bsp_app\obj/../app/main.c:551
    uint32_t dout = fpioa_nio_dout_read(); 
    29ec:	85dfd0ef          	jal	ra,248 <fpioa_nio_dout_read>
d:\PDS\SparrowRV-master\bsp\bsp_app\obj/../app/main.c:552
    if (on) dout |= NIO_16; else dout &= ~NIO_16; 
    29f0:	ffff07b7          	lui	a5,0xffff0
    29f4:	fff78793          	addi	a5,a5,-1 # fffeffff <_sp+0xdffaffff>
d:\PDS\SparrowRV-master\bsp\bsp_app\obj/../app/main.c:553
    fpioa_nio_dout_write(dout); 
    29f8:	00f57533          	and	a0,a0,a5
    29fc:	841fd0ef          	jal	ra,23c <fpioa_nio_dout_write>
set_led6_status():
d:\PDS\SparrowRV-master\bsp\bsp_app\obj/../app/main.c:545
    uint32_t dout = fpioa_nio_dout_read(); 
    2a00:	849fd0ef          	jal	ra,248 <fpioa_nio_dout_read>
d:\PDS\SparrowRV-master\bsp\bsp_app\obj/../app/main.c:546
    if (on) dout |= NIO_14; else dout &= ~NIO_14;
    2a04:	ffffc7b7          	lui	a5,0xffffc
    2a08:	fff78913          	addi	s2,a5,-1 # ffffbfff <_sp+0xdffbbfff>
d:\PDS\SparrowRV-master\bsp\bsp_app\obj/../app/main.c:547
    fpioa_nio_dout_write(dout); 
    2a0c:	01257533          	and	a0,a0,s2
    2a10:	82dfd0ef          	jal	ra,23c <fpioa_nio_dout_write>
car_plate_recognize_pipeline():
d:\PDS\SparrowRV-master\bsp\bsp_app\obj/../app/main.c:519
    if (valid_char_count > 0) {
    2a14:	8a0a82e3          	beqz	s5,22b8 <car_plate_recognize_pipeline+0xc84>
d:\PDS\SparrowRV-master\bsp\bsp_app\obj/../app/main.c:520
        printf("\r\n🎉大功告成！识别出 %d 个有效字符，LED 闪烁播报中...\r\n", valid_char_count);
    2a18:	20000537          	lui	a0,0x20000
    2a1c:	000a8593          	mv	a1,s5
    2a20:	49050513          	addi	a0,a0,1168 # 20000490 <_data+0x490>
d:\PDS\SparrowRV-master\bsp\bsp_app\obj/../app/main.c:522
            set_led6_status(1); for(volatile int j = 0; j < 800000; j++);
    2a24:	000c3437          	lui	s0,0xc3
d:\PDS\SparrowRV-master\bsp\bsp_app\obj/../app/main.c:520
        printf("\r\n🎉大功告成！识别出 %d 个有效字符，LED 闪烁播报中...\r\n", valid_char_count);
    2a28:	bbdfe0ef          	jal	ra,15e4 <printf_>
    2a2c:	00300493          	li	s1,3
set_led6_status():
d:\PDS\SparrowRV-master\bsp\bsp_app\obj/../app/main.c:546
    if (on) dout |= NIO_14; else dout &= ~NIO_14;
    2a30:	000049b7          	lui	s3,0x4
car_plate_recognize_pipeline():
d:\PDS\SparrowRV-master\bsp\bsp_app\obj/../app/main.c:522
            set_led6_status(1); for(volatile int j = 0; j < 800000; j++);
    2a34:	4ff40413          	addi	s0,s0,1279 # c34ff <_app_prog_size+0x834ff>
set_led6_status():
d:\PDS\SparrowRV-master\bsp\bsp_app\obj/../app/main.c:545
    uint32_t dout = fpioa_nio_dout_read(); 
    2a38:	811fd0ef          	jal	ra,248 <fpioa_nio_dout_read>
d:\PDS\SparrowRV-master\bsp\bsp_app\obj/../app/main.c:547
    fpioa_nio_dout_write(dout); 
    2a3c:	01356533          	or	a0,a0,s3
    2a40:	ffcfd0ef          	jal	ra,23c <fpioa_nio_dout_write>
car_plate_recognize_pipeline():
d:\PDS\SparrowRV-master\bsp\bsp_app\obj/../app/main.c:522
            set_led6_status(1); for(volatile int j = 0; j < 800000; j++);
    2a44:	04012823          	sw	zero,80(sp)
    2a48:	05012783          	lw	a5,80(sp)
    2a4c:	00f44c63          	blt	s0,a5,2a64 <car_plate_recognize_pipeline+0x1430>
d:\PDS\SparrowRV-master\bsp\bsp_app\obj/../app/main.c:522 (discriminator 3)
    2a50:	05012783          	lw	a5,80(sp)
    2a54:	00178793          	addi	a5,a5,1
    2a58:	04f12823          	sw	a5,80(sp)
    2a5c:	05012783          	lw	a5,80(sp)
    2a60:	fef458e3          	bge	s0,a5,2a50 <car_plate_recognize_pipeline+0x141c>
set_led6_status():
d:\PDS\SparrowRV-master\bsp\bsp_app\obj/../app/main.c:545
    uint32_t dout = fpioa_nio_dout_read(); 
    2a64:	fe4fd0ef          	jal	ra,248 <fpioa_nio_dout_read>
d:\PDS\SparrowRV-master\bsp\bsp_app\obj/../app/main.c:547
    fpioa_nio_dout_write(dout); 
    2a68:	01257533          	and	a0,a0,s2
    2a6c:	fd0fd0ef          	jal	ra,23c <fpioa_nio_dout_write>
car_plate_recognize_pipeline():
d:\PDS\SparrowRV-master\bsp\bsp_app\obj/../app/main.c:523
            set_led6_status(0); for(volatile int j = 0; j < 800000; j++);
    2a70:	04012a23          	sw	zero,84(sp)
    2a74:	05412783          	lw	a5,84(sp)
    2a78:	00f44c63          	blt	s0,a5,2a90 <car_plate_recognize_pipeline+0x145c>
d:\PDS\SparrowRV-master\bsp\bsp_app\obj/../app/main.c:523 (discriminator 3)
    2a7c:	05412783          	lw	a5,84(sp)
    2a80:	00178793          	addi	a5,a5,1
    2a84:	04f12a23          	sw	a5,84(sp)
    2a88:	05412783          	lw	a5,84(sp)
    2a8c:	fef458e3          	bge	s0,a5,2a7c <car_plate_recognize_pipeline+0x1448>
d:\PDS\SparrowRV-master\bsp\bsp_app\obj/../app/main.c:521
        for (int k = 0; k < 3; k++) {
    2a90:	fff48493          	addi	s1,s1,-1
    2a94:	fa0492e3          	bnez	s1,2a38 <car_plate_recognize_pipeline+0x1404>
d:\PDS\SparrowRV-master\bsp\bsp_app\obj/../app/main.c:525
        for(volatile int j = 0; j < 3000000; j++); 
    2a98:	04012c23          	sw	zero,88(sp)
    2a9c:	05812703          	lw	a4,88(sp)
    2aa0:	002dc7b7          	lui	a5,0x2dc
    2aa4:	6bf78793          	addi	a5,a5,1727 # 2dc6bf <_app_prog_size+0x29c6bf>
    2aa8:	00e7cc63          	blt	a5,a4,2ac0 <car_plate_recognize_pipeline+0x148c>
d:\PDS\SparrowRV-master\bsp\bsp_app\obj/../app/main.c:525 (discriminator 3)
    2aac:	05812703          	lw	a4,88(sp)
    2ab0:	00170713          	addi	a4,a4,1
    2ab4:	04e12c23          	sw	a4,88(sp)
    2ab8:	05812703          	lw	a4,88(sp)
    2abc:	fee7d8e3          	bge	a5,a4,2aac <car_plate_recognize_pipeline+0x1478>
d:\PDS\SparrowRV-master\bsp\bsp_app\obj/../app/main.c:527
            set_led6_status(1); for(volatile int j = 0; j < 1500000; j++);
    2ac0:	0016e437          	lui	s0,0x16e
set_led6_status():
d:\PDS\SparrowRV-master\bsp\bsp_app\obj/../app/main.c:546
    if (on) dout |= NIO_14; else dout &= ~NIO_14;
    2ac4:	ffffc7b7          	lui	a5,0xffffc
car_plate_recognize_pipeline():
d:\PDS\SparrowRV-master\bsp\bsp_app\obj/../app/main.c:526
        for(int k = 0; k < valid_char_count; k++) {
    2ac8:	00000493          	li	s1,0
set_led6_status():
d:\PDS\SparrowRV-master\bsp\bsp_app\obj/../app/main.c:546
    if (on) dout |= NIO_14; else dout &= ~NIO_14;
    2acc:	000049b7          	lui	s3,0x4
car_plate_recognize_pipeline():
d:\PDS\SparrowRV-master\bsp\bsp_app\obj/../app/main.c:527
            set_led6_status(1); for(volatile int j = 0; j < 1500000; j++);
    2ad0:	35f40413          	addi	s0,s0,863 # 16e35f <_app_prog_size+0x12e35f>
set_led6_status():
d:\PDS\SparrowRV-master\bsp\bsp_app\obj/../app/main.c:546
    if (on) dout |= NIO_14; else dout &= ~NIO_14;
    2ad4:	fff78913          	addi	s2,a5,-1 # ffffbfff <_sp+0xdffbbfff>
d:\PDS\SparrowRV-master\bsp\bsp_app\obj/../app/main.c:545
    uint32_t dout = fpioa_nio_dout_read(); 
    2ad8:	f70fd0ef          	jal	ra,248 <fpioa_nio_dout_read>
d:\PDS\SparrowRV-master\bsp\bsp_app\obj/../app/main.c:547
    fpioa_nio_dout_write(dout); 
    2adc:	01356533          	or	a0,a0,s3
    2ae0:	f5cfd0ef          	jal	ra,23c <fpioa_nio_dout_write>
car_plate_recognize_pipeline():
d:\PDS\SparrowRV-master\bsp\bsp_app\obj/../app/main.c:527
            set_led6_status(1); for(volatile int j = 0; j < 1500000; j++);
    2ae4:	04012e23          	sw	zero,92(sp)
    2ae8:	05c12783          	lw	a5,92(sp)
    2aec:	00f44c63          	blt	s0,a5,2b04 <car_plate_recognize_pipeline+0x14d0>
d:\PDS\SparrowRV-master\bsp\bsp_app\obj/../app/main.c:527 (discriminator 3)
    2af0:	05c12783          	lw	a5,92(sp)
    2af4:	00178793          	addi	a5,a5,1
    2af8:	04f12e23          	sw	a5,92(sp)
    2afc:	05c12783          	lw	a5,92(sp)
    2b00:	fef458e3          	bge	s0,a5,2af0 <car_plate_recognize_pipeline+0x14bc>
set_led6_status():
d:\PDS\SparrowRV-master\bsp\bsp_app\obj/../app/main.c:545
    uint32_t dout = fpioa_nio_dout_read(); 
    2b04:	f44fd0ef          	jal	ra,248 <fpioa_nio_dout_read>
d:\PDS\SparrowRV-master\bsp\bsp_app\obj/../app/main.c:547
    fpioa_nio_dout_write(dout); 
    2b08:	01257533          	and	a0,a0,s2
    2b0c:	f30fd0ef          	jal	ra,23c <fpioa_nio_dout_write>
car_plate_recognize_pipeline():
d:\PDS\SparrowRV-master\bsp\bsp_app\obj/../app/main.c:528
            set_led6_status(0); for(volatile int j = 0; j < 1500000; j++);
    2b10:	06012023          	sw	zero,96(sp)
    2b14:	06012783          	lw	a5,96(sp)
    2b18:	00f44c63          	blt	s0,a5,2b30 <car_plate_recognize_pipeline+0x14fc>
d:\PDS\SparrowRV-master\bsp\bsp_app\obj/../app/main.c:528 (discriminator 3)
    2b1c:	06012783          	lw	a5,96(sp)
    2b20:	00178793          	addi	a5,a5,1
    2b24:	06f12023          	sw	a5,96(sp)
    2b28:	06012783          	lw	a5,96(sp)
    2b2c:	fef458e3          	bge	s0,a5,2b1c <car_plate_recognize_pipeline+0x14e8>
d:\PDS\SparrowRV-master\bsp\bsp_app\obj/../app/main.c:526
        for(int k = 0; k < valid_char_count; k++) {
    2b30:	00148493          	addi	s1,s1,1
    2b34:	fa9a92e3          	bne	s5,s1,2ad8 <car_plate_recognize_pipeline+0x14a4>
d:\PDS\SparrowRV-master\bsp\bsp_app\obj/../app/main.c:530
        for(volatile int j = 0; j < 10000000; j++); 
    2b38:	06012223          	sw	zero,100(sp)
    2b3c:	06412703          	lw	a4,100(sp)
    2b40:	009897b7          	lui	a5,0x989
    2b44:	67f78793          	addi	a5,a5,1663 # 98967f <_app_prog_size+0x94967f>
    2b48:	00e7cc63          	blt	a5,a4,2b60 <car_plate_recognize_pipeline+0x152c>
d:\PDS\SparrowRV-master\bsp\bsp_app\obj/../app/main.c:530 (discriminator 3)
    2b4c:	06412703          	lw	a4,100(sp)
    2b50:	00170713          	addi	a4,a4,1
    2b54:	06e12223          	sw	a4,100(sp)
    2b58:	06412703          	lw	a4,100(sp)
    2b5c:	fee7d8e3          	bge	a5,a4,2b4c <car_plate_recognize_pipeline+0x1518>
d:\PDS\SparrowRV-master\bsp\bsp_app\obj/../app/main.c:534
}
    2b60:	0cc12083          	lw	ra,204(sp)
    2b64:	0c812403          	lw	s0,200(sp)
    2b68:	0c412483          	lw	s1,196(sp)
    2b6c:	0c012903          	lw	s2,192(sp)
    2b70:	0bc12983          	lw	s3,188(sp)
    2b74:	0b812a03          	lw	s4,184(sp)
    2b78:	0b412a83          	lw	s5,180(sp)
    2b7c:	0b012b03          	lw	s6,176(sp)
    2b80:	0ac12b83          	lw	s7,172(sp)
    2b84:	0a812c03          	lw	s8,168(sp)
    2b88:	0a412c83          	lw	s9,164(sp)
    2b8c:	0a012d03          	lw	s10,160(sp)
    2b90:	09c12d83          	lw	s11,156(sp)
    2b94:	0d010113          	addi	sp,sp,208
    2b98:	00008067          	ret
safe_div():
d:\PDS\SparrowRV-master\bsp\bsp_app\obj/../app/main.c:58
    while (num >= den) {
    2b9c:	000e0793          	mv	a5,t3
    2ba0:	00088f93          	mv	t6,a7
d:\PDS\SparrowRV-master\bsp\bsp_app\obj/../app/main.c:57
    int res = 0;
    2ba4:	00000c93          	li	s9,0
d:\PDS\SparrowRV-master\bsp\bsp_app\obj/../app/main.c:58
    while (num >= den) {
    2ba8:	c114cce3          	blt	s1,a7,27c0 <car_plate_recognize_pipeline+0x118c>
    2bac:	00090c93          	mv	s9,s2
    2bb0:	c55ff06f          	j	2804 <car_plate_recognize_pipeline+0x11d0>
d:\PDS\SparrowRV-master\bsp\bsp_app\obj/../app/main.c:66
        res += multiple;
    2bb4:	001c8c93          	addi	s9,s9,1
    2bb8:	00812303          	lw	t1,8(sp)
process_and_match_mem():
d:\PDS\SparrowRV-master\bsp\bsp_app\obj/../app/main.c:119
            int src_y = char_y + safe_div(y * char_h, TPL_H);
    2bbc:	012c8cb3          	add	s9,s9,s2
    2bc0:	c45ff06f          	j	2804 <car_plate_recognize_pipeline+0x11d0>
safe_div():
d:\PDS\SparrowRV-master\bsp\bsp_app\obj/../app/main.c:66
        res += multiple;
    2bc4:	00178793          	addi	a5,a5,1
process_and_match_mem():
d:\PDS\SparrowRV-master\bsp\bsp_app\obj/../app/main.c:118
            int src_x = char_x + safe_div(x * char_w, TPL_W);
    2bc8:	01c787b3          	add	a5,a5,t3
    2bcc:	be9ff06f          	j	27b4 <car_plate_recognize_pipeline+0x1180>
car_plate_recognize_pipeline():
d:\PDS\SparrowRV-master\bsp\bsp_app\obj/../app/main.c:484
                curr_x1 = nxt_x1; curr_x2 = nxt_x2; curr_w = nxt_w;
    2bd0:	00050e13          	mv	t3,a0
    2bd4:	00060593          	mv	a1,a2
    2bd8:	a15ff06f          	j	25ec <car_plate_recognize_pipeline+0xfb8>
process_and_match_mem():
d:\PDS\SparrowRV-master\bsp\bsp_app\obj/../app/main.c:151
                if (test_image[j] == 1) current_score += 10;
    2bdc:	0006c783          	lbu	a5,0(a3)
    2be0:	01478a63          	beq	a5,s4,2bf4 <car_plate_recognize_pipeline+0x15c0>
d:\PDS\SparrowRV-master\bsp\bsp_app\obj/../app/main.c:152
                else current_score += 1;
    2be4:	00170713          	addi	a4,a4,1
    2be8:	d81ff06f          	j	2968 <car_plate_recognize_pipeline+0x1334>
d:\PDS\SparrowRV-master\bsp\bsp_app\obj/../app/main.c:154
                if (template_lib[i].data[j] == 1) current_score -= 5;
    2bec:	ffb70713          	addi	a4,a4,-5
    2bf0:	d79ff06f          	j	2968 <car_plate_recognize_pipeline+0x1334>
d:\PDS\SparrowRV-master\bsp\bsp_app\obj/../app/main.c:151
                if (test_image[j] == 1) current_score += 10;
    2bf4:	00a70713          	addi	a4,a4,10
    2bf8:	d71ff06f          	j	2968 <car_plate_recognize_pipeline+0x1334>
d:\PDS\SparrowRV-master\bsp\bsp_app\obj/../app/main.c:141
        if (expected_pos == 1) {
    2bfc:	d34916e3          	bne	s2,s4,2928 <car_plate_recognize_pipeline+0x12f4>
    2c00:	cedff06f          	j	28ec <car_plate_recognize_pipeline+0x12b8>
car_plate_recognize_pipeline():
d:\PDS\SparrowRV-master\bsp\bsp_app\obj/../app/main.c:208 (discriminator 1)
    if(y_min == -1) { printf(" >> [失败] 未检测到车牌高度\r\n"); set_led5_status(0); return; }
    2c04:	20000537          	lui	a0,0x20000
    2c08:	14050513          	addi	a0,a0,320 # 20000140 <_data+0x140>
d:\PDS\SparrowRV-master\bsp\bsp_app\obj/../app/main.c:233 (discriminator 1)
    if(x_min == -1) { printf(" >> [失败] 未检测到车牌宽度\r\n"); set_led5_status(0); return; }
    2c0c:	9d9fe0ef          	jal	ra,15e4 <printf_>
set_led5_status():
d:\PDS\SparrowRV-master\bsp\bsp_app\obj/../app/main.c:551 (discriminator 1)
    uint32_t dout = fpioa_nio_dout_read(); 
    2c10:	e38fd0ef          	jal	ra,248 <fpioa_nio_dout_read>
car_plate_recognize_pipeline():
d:\PDS\SparrowRV-master\bsp\bsp_app\obj/../app/main.c:534 (discriminator 1)
}
    2c14:	0c812403          	lw	s0,200(sp)
    2c18:	0cc12083          	lw	ra,204(sp)
    2c1c:	0c412483          	lw	s1,196(sp)
    2c20:	0c012903          	lw	s2,192(sp)
    2c24:	0bc12983          	lw	s3,188(sp)
    2c28:	0b812a03          	lw	s4,184(sp)
    2c2c:	0b412a83          	lw	s5,180(sp)
    2c30:	0b012b03          	lw	s6,176(sp)
    2c34:	0ac12b83          	lw	s7,172(sp)
    2c38:	0a812c03          	lw	s8,168(sp)
    2c3c:	0a412c83          	lw	s9,164(sp)
    2c40:	0a012d03          	lw	s10,160(sp)
    2c44:	09c12d83          	lw	s11,156(sp)
set_led5_status():
d:\PDS\SparrowRV-master\bsp\bsp_app\obj/../app/main.c:552 (discriminator 1)
    if (on) dout |= NIO_16; else dout &= ~NIO_16; 
    2c48:	ffff07b7          	lui	a5,0xffff0
    2c4c:	fff78793          	addi	a5,a5,-1 # fffeffff <_sp+0xdffaffff>
d:\PDS\SparrowRV-master\bsp\bsp_app\obj/../app/main.c:553 (discriminator 1)
    fpioa_nio_dout_write(dout); 
    2c50:	00f57533          	and	a0,a0,a5
car_plate_recognize_pipeline():
d:\PDS\SparrowRV-master\bsp\bsp_app\obj/../app/main.c:534 (discriminator 1)
}
    2c54:	0d010113          	addi	sp,sp,208
set_led5_status():
d:\PDS\SparrowRV-master\bsp\bsp_app\obj/../app/main.c:553 (discriminator 1)
    fpioa_nio_dout_write(dout); 
    2c58:	de4fd06f          	j	23c <fpioa_nio_dout_write>
car_plate_recognize_pipeline():
d:\PDS\SparrowRV-master\bsp\bsp_app\obj/../app/main.c:488
            merged_x1[m_count] = curr_x1; merged_x2[m_count] = curr_x2; merged_w[m_count] = curr_w;
    2c5c:	00241613          	slli	a2,s0,0x2
    2c60:	a1e036b7          	lui	a3,0xa1e03
    2c64:	a1e04737          	lui	a4,0xa1e04
    2c68:	a1e057b7          	lui	a5,0xa1e05
    2c6c:	00c686b3          	add	a3,a3,a2
    2c70:	00c70733          	add	a4,a4,a2
    2c74:	00c787b3          	add	a5,a5,a2
d:\PDS\SparrowRV-master\bsp\bsp_app\obj/../app/main.c:489
            m_count++; 
    2c78:	00140413          	addi	s0,s0,1
d:\PDS\SparrowRV-master\bsp\bsp_app\obj/../app/main.c:488
            merged_x1[m_count] = curr_x1; merged_x2[m_count] = curr_x2; merged_w[m_count] = curr_w;
    2c7c:	00b6a023          	sw	a1,0(a3) # a1e03000 <_sp+0x81dc3000>
    2c80:	01172023          	sw	a7,0(a4) # a1e04000 <_sp+0x81dc4000>
d:\PDS\SparrowRV-master\bsp\bsp_app\obj/../app/main.c:493
    printf(" >> 切割完成！共切出候选字符模块数量: %d\r\n", m_count);
    2c84:	20000537          	lui	a0,0x20000
    2c88:	00040593          	mv	a1,s0
d:\PDS\SparrowRV-master\bsp\bsp_app\obj/../app/main.c:488
            merged_x1[m_count] = curr_x1; merged_x2[m_count] = curr_x2; merged_w[m_count] = curr_w;
    2c8c:	01c7a023          	sw	t3,0(a5) # a1e05000 <_sp+0x81dc5000>
d:\PDS\SparrowRV-master\bsp\bsp_app\obj/../app/main.c:493
    printf(" >> 切割完成！共切出候选字符模块数量: %d\r\n", m_count);
    2c90:	41850513          	addi	a0,a0,1048 # 20000418 <_data+0x418>
    2c94:	951fe0ef          	jal	ra,15e4 <printf_>
d:\PDS\SparrowRV-master\bsp\bsp_app\obj/../app/main.c:498
    printf("[阶段 6/6] 送入模板匹配识别！\r\n识别结果: ");
    2c98:	20000537          	lui	a0,0x20000
    2c9c:	45450513          	addi	a0,a0,1108 # 20000454 <_data+0x454>
d:\PDS\SparrowRV-master\bsp\bsp_app\obj/../app/main.c:500
    int match_roi_h = y_bot - y_top + 1;
    2ca0:	412484b3          	sub	s1,s1,s2
d:\PDS\SparrowRV-master\bsp\bsp_app\obj/../app/main.c:498
    printf("[阶段 6/6] 送入模板匹配识别！\r\n识别结果: ");
    2ca4:	941fe0ef          	jal	ra,15e4 <printf_>
d:\PDS\SparrowRV-master\bsp\bsp_app\obj/../app/main.c:500
    int match_roi_h = y_bot - y_top + 1;
    2ca8:	00148b93          	addi	s7,s1,1
d:\PDS\SparrowRV-master\bsp\bsp_app\obj/../app/main.c:502
    for (int i = 0; i < m_count; i++) {
    2cac:	a31ff06f          	j	26dc <car_plate_recognize_pipeline+0x10a8>
d:\PDS\SparrowRV-master\bsp\bsp_app\obj/../app/main.c:467
        median_w = sort_buf[raw_count >> 1];
    2cb0:	a1e067b7          	lui	a5,0xa1e06
    2cb4:	0007a783          	lw	a5,0(a5) # a1e06000 <_sp+0x81dc6000>
d:\PDS\SparrowRV-master\bsp\bsp_app\obj/../app/main.c:472
        int curr_x1 = raw_x1[0], curr_x2 = raw_x2[0], curr_w = raw_w[0];
    2cb8:	a1e00737          	lui	a4,0xa1e00
    2cbc:	a1e016b7          	lui	a3,0xa1e01
    2cc0:	a1e02637          	lui	a2,0xa1e02
    2cc4:	00072583          	lw	a1,0(a4) # a1e00000 <_sp+0x81dc0000>
    2cc8:	a1e057b7          	lui	a5,0xa1e05
    2ccc:	0006a883          	lw	a7,0(a3) # a1e01000 <_sp+0x81dc1000>
    2cd0:	a1e04737          	lui	a4,0xa1e04
    2cd4:	00062e03          	lw	t3,0(a2) # a1e02000 <_sp+0x81dc2000>
    2cd8:	a1e036b7          	lui	a3,0xa1e03
    2cdc:	fa1ff06f          	j	2c7c <car_plate_recognize_pipeline+0x1648>
d:\PDS\SparrowRV-master\bsp\bsp_app\obj/../app/main.c:233 (discriminator 1)
    if(x_min == -1) { printf(" >> [失败] 未检测到车牌宽度\r\n"); set_led5_status(0); return; }
    2ce0:	20000537          	lui	a0,0x20000
    2ce4:	16850513          	addi	a0,a0,360 # 20000168 <_data+0x168>
    2ce8:	f25ff06f          	j	2c0c <car_plate_recognize_pipeline+0x15d8>
d:\PDS\SparrowRV-master\bsp\bsp_app\obj/../app/main.c:240
    for(int y = y_min; y <= y_max; y++) {
    2cec:	00098d93          	mv	s11,s3
    2cf0:	000b0c93          	mv	s9,s6
    2cf4:	00098493          	mv	s1,s3
    2cf8:	00090a13          	mv	s4,s2
    2cfc:	000b0b93          	mv	s7,s6
    2d00:	00040a93          	mv	s5,s0
    2d04:	be5fe06f          	j	18e8 <car_plate_recognize_pipeline+0x2b4>
d:\PDS\SparrowRV-master\bsp\bsp_app\obj/../app/main.c:458
        for(int i = 0; i < raw_count - 1; i++) {
    2d08:	00040793          	mv	a5,s0
    2d0c:	fff40413          	addi	s0,s0,-1
    2d10:	f88ff06f          	j	2498 <car_plate_recognize_pipeline+0xe64>
process_and_match_mem():
d:\PDS\SparrowRV-master\bsp\bsp_app\obj/../app/main.c:122
                test_image[y * TPL_W + x] = 0;
    2d14:	00070023          	sb	zero,0(a4) # a1e04000 <_sp+0x81dc4000>
    2d18:	b55ff06f          	j	286c <car_plate_recognize_pipeline+0x1238>

00002d1c <init_fpioa_custom>:
init_fpioa_custom():
d:\PDS\SparrowRV-master\bsp\bsp_app\obj/../app/main.c:539
void init_fpioa_custom() {
    2d1c:	ff010113          	addi	sp,sp,-16
d:\PDS\SparrowRV-master\bsp\bsp_app\obj/../app/main.c:540
    fpioa_nio_mode_write(NIO_15, NIO_MODE_HIGHZ);
    2d20:	00000593          	li	a1,0
    2d24:	00008537          	lui	a0,0x8
d:\PDS\SparrowRV-master\bsp\bsp_app\obj/../app/main.c:539
void init_fpioa_custom() {
    2d28:	00112623          	sw	ra,12(sp)
d:\PDS\SparrowRV-master\bsp\bsp_app\obj/../app/main.c:540
    fpioa_nio_mode_write(NIO_15, NIO_MODE_HIGHZ);
    2d2c:	d28fd0ef          	jal	ra,254 <fpioa_nio_mode_write>
d:\PDS\SparrowRV-master\bsp\bsp_app\obj/../app/main.c:542
}
    2d30:	00c12083          	lw	ra,12(sp)
d:\PDS\SparrowRV-master\bsp\bsp_app\obj/../app/main.c:541
    fpioa_nio_mode_write(NIO_14 | NIO_16, NIO_MODE_OE_PP);
    2d34:	00200593          	li	a1,2
    2d38:	00014537          	lui	a0,0x14
d:\PDS\SparrowRV-master\bsp\bsp_app\obj/../app/main.c:542
}
    2d3c:	01010113          	addi	sp,sp,16
d:\PDS\SparrowRV-master\bsp\bsp_app\obj/../app/main.c:541
    fpioa_nio_mode_write(NIO_14 | NIO_16, NIO_MODE_OE_PP);
    2d40:	d14fd06f          	j	254 <fpioa_nio_mode_write>

00002d44 <check_button>:
check_button():
d:\PDS\SparrowRV-master\bsp\bsp_app\obj/../app/main.c:559
void check_button() {
    2d44:	fd010113          	addi	sp,sp,-48
    2d48:	02812423          	sw	s0,40(sp)
    2d4c:	03212023          	sw	s2,32(sp)
    2d50:	02112623          	sw	ra,44(sp)
    2d54:	02912223          	sw	s1,36(sp)
    2d58:	01312e23          	sw	s3,28(sp)
d:\PDS\SparrowRV-master\bsp\bsp_app\obj/../app/main.c:562
    if (last_btn_state == 1 && current_btn_state == 0) {
    2d5c:	20022937          	lui	s2,0x20022
d:\PDS\SparrowRV-master\bsp\bsp_app\obj/../app/main.c:560
    uint32_t din = fpioa_nio_din_read();
    2d60:	cd0fd0ef          	jal	ra,230 <fpioa_nio_din_read>
d:\PDS\SparrowRV-master\bsp\bsp_app\obj/../app/main.c:562
    if (last_btn_state == 1 && current_btn_state == 0) {
    2d64:	a7c92703          	lw	a4,-1412(s2) # 20021a7c <last_btn_state>
d:\PDS\SparrowRV-master\bsp\bsp_app\obj/../app/main.c:561
    int current_btn_state = (din & NIO_15) ? 1 : 0;
    2d68:	00f55413          	srli	s0,a0,0xf
d:\PDS\SparrowRV-master\bsp\bsp_app\obj/../app/main.c:562
    if (last_btn_state == 1 && current_btn_state == 0) {
    2d6c:	00100793          	li	a5,1
    2d70:	00147413          	andi	s0,s0,1
    2d74:	02f70263          	beq	a4,a5,2d98 <check_button+0x54>
d:\PDS\SparrowRV-master\bsp\bsp_app\obj/../app/main.c:575
    last_btn_state = current_btn_state;
    2d78:	a6892e23          	sw	s0,-1412(s2)
d:\PDS\SparrowRV-master\bsp\bsp_app\obj/../app/main.c:576
}
    2d7c:	02c12083          	lw	ra,44(sp)
    2d80:	02812403          	lw	s0,40(sp)
    2d84:	02412483          	lw	s1,36(sp)
    2d88:	02012903          	lw	s2,32(sp)
    2d8c:	01c12983          	lw	s3,28(sp)
    2d90:	03010113          	addi	sp,sp,48
    2d94:	00008067          	ret
d:\PDS\SparrowRV-master\bsp\bsp_app\obj/../app/main.c:562 (discriminator 1)
    if (last_btn_state == 1 && current_btn_state == 0) {
    2d98:	fe0410e3          	bnez	s0,2d78 <check_button+0x34>
d:\PDS\SparrowRV-master\bsp\bsp_app\obj/../app/main.c:563
        for(volatile int i=0; i<10000; i++); 
    2d9c:	00012623          	sw	zero,12(sp)
    2da0:	00c12783          	lw	a5,12(sp)
    2da4:	00002737          	lui	a4,0x2
    2da8:	70f70713          	addi	a4,a4,1807 # 270f <car_plate_recognize_pipeline+0x10db>
    2dac:	00f74c63          	blt	a4,a5,2dc4 <check_button+0x80>
d:\PDS\SparrowRV-master\bsp\bsp_app\obj/../app/main.c:563 (discriminator 3)
    2db0:	00c12783          	lw	a5,12(sp)
    2db4:	00178793          	addi	a5,a5,1 # a1e05001 <_sp+0x81dc5001>
    2db8:	00f12623          	sw	a5,12(sp)
    2dbc:	00c12783          	lw	a5,12(sp)
    2dc0:	fef758e3          	bge	a4,a5,2db0 <check_button+0x6c>
d:\PDS\SparrowRV-master\bsp\bsp_app\obj/../app/main.c:564
        din = fpioa_nio_din_read();
    2dc4:	c6cfd0ef          	jal	ra,230 <fpioa_nio_din_read>
d:\PDS\SparrowRV-master\bsp\bsp_app\obj/../app/main.c:565
        if ((din & NIO_15) == 0) {
    2dc8:	000087b7          	lui	a5,0x8
    2dcc:	00f57533          	and	a0,a0,a5
    2dd0:	fa0514e3          	bnez	a0,2d78 <check_button+0x34>
d:\PDS\SparrowRV-master\bsp\bsp_app\obj/../app/main.c:566
            if (current_plate_type == 1) current_plate_type = 2;
    2dd4:	200227b7          	lui	a5,0x20022
    2dd8:	a787a683          	lw	a3,-1416(a5) # 20021a78 <current_plate_type>
    2ddc:	00100713          	li	a4,1
    2de0:	00e69463          	bne	a3,a4,2de8 <check_button+0xa4>
d:\PDS\SparrowRV-master\bsp\bsp_app\obj/../app/main.c:566 (discriminator 1)
    2de4:	00200713          	li	a4,2
d:\PDS\SparrowRV-master\bsp\bsp_app\obj/../app/main.c:559 (discriminator 1)
void check_button() {
    2de8:	0000c4b7          	lui	s1,0xc
d:\PDS\SparrowRV-master\bsp\bsp_app\obj/../app/main.c:566 (discriminator 1)
            if (current_plate_type == 1) current_plate_type = 2;
    2dec:	a6e7ac23          	sw	a4,-1416(a5)
d:\PDS\SparrowRV-master\bsp\bsp_app\obj/../app/main.c:559 (discriminator 1)
void check_button() {
    2df0:	35248493          	addi	s1,s1,850 # c352 <__stack_size+0x8352>
d:\PDS\SparrowRV-master\bsp\bsp_app\obj/../app/main.c:570 (discriminator 1)
            while((fpioa_nio_din_read() & NIO_15) == 0) {
    2df4:	000089b7          	lui	s3,0x8
    2df8:	0080006f          	j	2e00 <check_button+0xbc>
d:\PDS\SparrowRV-master\bsp\bsp_app\obj/../app/main.c:571
                if (timeout++ > 50000) break; 
    2dfc:	f6048ee3          	beqz	s1,2d78 <check_button+0x34>
d:\PDS\SparrowRV-master\bsp\bsp_app\obj/../app/main.c:570
            while((fpioa_nio_din_read() & NIO_15) == 0) {
    2e00:	c30fd0ef          	jal	ra,230 <fpioa_nio_din_read>
    2e04:	01357533          	and	a0,a0,s3
d:\PDS\SparrowRV-master\bsp\bsp_app\obj/../app/main.c:571
                if (timeout++ > 50000) break; 
    2e08:	fff48493          	addi	s1,s1,-1
d:\PDS\SparrowRV-master\bsp\bsp_app\obj/../app/main.c:570
            while((fpioa_nio_din_read() & NIO_15) == 0) {
    2e0c:	fe0508e3          	beqz	a0,2dfc <check_button+0xb8>
    2e10:	f69ff06f          	j	2d78 <check_button+0x34>

00002e14 <SysTick_Handler>:
SysTick_Handler():
d:\PDS\SparrowRV-master\bsp\bsp_app\obj/../app/trap_handler.c:23
//定时器中断服务程序
void SysTick_Handler() __attribute__((interrupt("machine")));
void SysTick_Handler()
{
    //printf("interrupt tcmp in original function\n");
}
    2e14:	30200073          	mret

00002e18 <HardFault_Handler>:
HardFault_Handler():
d:\PDS\SparrowRV-master\bsp\bsp_app\obj/../app/trap_handler.c:38 (discriminator 1)

//硬件错误引发异常
void HardFault_Handler() __attribute__((interrupt("machine")));
void HardFault_Handler()
{
    while(1);
    2e18:	0000006f          	j	2e18 <HardFault_Handler>

00002e1c <PLIC1_FPIOA_ELI0_Handler>:
PLIC1_FPIOA_ELI0_Handler():
d:\PDS\SparrowRV-master\bsp\bsp_app\obj/../app/trap_handler.c:43
}

void PLIC1_FPIOA_ELI0_Handler() __attribute__((interrupt("machine")));
void PLIC1_FPIOA_ELI0_Handler()
{
    2e1c:	fc010113          	addi	sp,sp,-64
    2e20:	02a12623          	sw	a0,44(sp)
d:\PDS\SparrowRV-master\bsp\bsp_app\obj/../app/trap_handler.c:44
    csr_msprint_string("PLIC1_Hdler\n");
    2e24:	20021537          	lui	a0,0x20021
    2e28:	6c850513          	addi	a0,a0,1736 # 200216c8 <template_data_0+0x800>
d:\PDS\SparrowRV-master\bsp\bsp_app\obj/../app/trap_handler.c:43
{
    2e2c:	02112e23          	sw	ra,60(sp)
    2e30:	02512c23          	sw	t0,56(sp)
    2e34:	02612a23          	sw	t1,52(sp)
    2e38:	02712823          	sw	t2,48(sp)
    2e3c:	02b12423          	sw	a1,40(sp)
    2e40:	02c12223          	sw	a2,36(sp)
    2e44:	02d12023          	sw	a3,32(sp)
    2e48:	00e12e23          	sw	a4,28(sp)
    2e4c:	00f12c23          	sw	a5,24(sp)
    2e50:	01012a23          	sw	a6,20(sp)
    2e54:	01112823          	sw	a7,16(sp)
    2e58:	01c12623          	sw	t3,12(sp)
    2e5c:	01d12423          	sw	t4,8(sp)
    2e60:	01e12223          	sw	t5,4(sp)
    2e64:	01f12023          	sw	t6,0(sp)
d:\PDS\SparrowRV-master\bsp\bsp_app\obj/../app/trap_handler.c:44
    csr_msprint_string("PLIC1_Hdler\n");
    2e68:	b9cfd0ef          	jal	ra,204 <csr_msprint_string>
d:\PDS\SparrowRV-master\bsp\bsp_app\obj/../app/trap_handler.c:45
}
    2e6c:	03c12083          	lw	ra,60(sp)
    2e70:	03812283          	lw	t0,56(sp)
    2e74:	03412303          	lw	t1,52(sp)
    2e78:	03012383          	lw	t2,48(sp)
    2e7c:	02c12503          	lw	a0,44(sp)
    2e80:	02812583          	lw	a1,40(sp)
    2e84:	02412603          	lw	a2,36(sp)
    2e88:	02012683          	lw	a3,32(sp)
    2e8c:	01c12703          	lw	a4,28(sp)
    2e90:	01812783          	lw	a5,24(sp)
    2e94:	01412803          	lw	a6,20(sp)
    2e98:	01012883          	lw	a7,16(sp)
    2e9c:	00c12e03          	lw	t3,12(sp)
    2ea0:	00812e83          	lw	t4,8(sp)
    2ea4:	00412f03          	lw	t5,4(sp)
    2ea8:	00012f83          	lw	t6,0(sp)
    2eac:	04010113          	addi	sp,sp,64
    2eb0:	30200073          	mret

00002eb4 <PLIC2_FPIOA_ELI1_Handler>:
PLIC2_FPIOA_ELI1_Handler():
d:\PDS\SparrowRV-master\bsp\bsp_app\obj/../app/trap_handler.c:49

void PLIC2_FPIOA_ELI1_Handler() __attribute__((interrupt("machine")));
void PLIC2_FPIOA_ELI1_Handler()
{
    2eb4:	fc010113          	addi	sp,sp,-64
    2eb8:	02a12623          	sw	a0,44(sp)
d:\PDS\SparrowRV-master\bsp\bsp_app\obj/../app/trap_handler.c:50
    csr_msprint_string("PLIC2_Hdler\n");
    2ebc:	20021537          	lui	a0,0x20021
    2ec0:	6d850513          	addi	a0,a0,1752 # 200216d8 <template_data_0+0x810>
d:\PDS\SparrowRV-master\bsp\bsp_app\obj/../app/trap_handler.c:49
{
    2ec4:	02112e23          	sw	ra,60(sp)
    2ec8:	02512c23          	sw	t0,56(sp)
    2ecc:	02612a23          	sw	t1,52(sp)
    2ed0:	02712823          	sw	t2,48(sp)
    2ed4:	02b12423          	sw	a1,40(sp)
    2ed8:	02c12223          	sw	a2,36(sp)
    2edc:	02d12023          	sw	a3,32(sp)
    2ee0:	00e12e23          	sw	a4,28(sp)
    2ee4:	00f12c23          	sw	a5,24(sp)
    2ee8:	01012a23          	sw	a6,20(sp)
    2eec:	01112823          	sw	a7,16(sp)
    2ef0:	01c12623          	sw	t3,12(sp)
    2ef4:	01d12423          	sw	t4,8(sp)
    2ef8:	01e12223          	sw	t5,4(sp)
    2efc:	01f12023          	sw	t6,0(sp)
d:\PDS\SparrowRV-master\bsp\bsp_app\obj/../app/trap_handler.c:50
    csr_msprint_string("PLIC2_Hdler\n");
    2f00:	b04fd0ef          	jal	ra,204 <csr_msprint_string>
d:\PDS\SparrowRV-master\bsp\bsp_app\obj/../app/trap_handler.c:51
}
    2f04:	03c12083          	lw	ra,60(sp)
    2f08:	03812283          	lw	t0,56(sp)
    2f0c:	03412303          	lw	t1,52(sp)
    2f10:	03012383          	lw	t2,48(sp)
    2f14:	02c12503          	lw	a0,44(sp)
    2f18:	02812583          	lw	a1,40(sp)
    2f1c:	02412603          	lw	a2,36(sp)
    2f20:	02012683          	lw	a3,32(sp)
    2f24:	01c12703          	lw	a4,28(sp)
    2f28:	01812783          	lw	a5,24(sp)
    2f2c:	01412803          	lw	a6,20(sp)
    2f30:	01012883          	lw	a7,16(sp)
    2f34:	00c12e03          	lw	t3,12(sp)
    2f38:	00812e83          	lw	t4,8(sp)
    2f3c:	00412f03          	lw	t5,4(sp)
    2f40:	00012f83          	lw	t6,0(sp)
    2f44:	04010113          	addi	sp,sp,64
    2f48:	30200073          	mret

00002f4c <PLIC3_FPIOA_ELI2_Handler>:
PLIC3_FPIOA_ELI2_Handler():
d:\PDS\SparrowRV-master\bsp\bsp_app\obj/../app/trap_handler.c:55

void PLIC3_FPIOA_ELI2_Handler() __attribute__((interrupt("machine")));
void PLIC3_FPIOA_ELI2_Handler()
{
    2f4c:	fc010113          	addi	sp,sp,-64
    2f50:	02a12623          	sw	a0,44(sp)
d:\PDS\SparrowRV-master\bsp\bsp_app\obj/../app/trap_handler.c:56
    csr_msprint_string("PLIC3_Hdler\n");
    2f54:	20021537          	lui	a0,0x20021
    2f58:	6e850513          	addi	a0,a0,1768 # 200216e8 <template_data_0+0x820>
d:\PDS\SparrowRV-master\bsp\bsp_app\obj/../app/trap_handler.c:55
{
    2f5c:	02112e23          	sw	ra,60(sp)
    2f60:	02512c23          	sw	t0,56(sp)
    2f64:	02612a23          	sw	t1,52(sp)
    2f68:	02712823          	sw	t2,48(sp)
    2f6c:	02b12423          	sw	a1,40(sp)
    2f70:	02c12223          	sw	a2,36(sp)
    2f74:	02d12023          	sw	a3,32(sp)
    2f78:	00e12e23          	sw	a4,28(sp)
    2f7c:	00f12c23          	sw	a5,24(sp)
    2f80:	01012a23          	sw	a6,20(sp)
    2f84:	01112823          	sw	a7,16(sp)
    2f88:	01c12623          	sw	t3,12(sp)
    2f8c:	01d12423          	sw	t4,8(sp)
    2f90:	01e12223          	sw	t5,4(sp)
    2f94:	01f12023          	sw	t6,0(sp)
d:\PDS\SparrowRV-master\bsp\bsp_app\obj/../app/trap_handler.c:56
    csr_msprint_string("PLIC3_Hdler\n");
    2f98:	a6cfd0ef          	jal	ra,204 <csr_msprint_string>
d:\PDS\SparrowRV-master\bsp\bsp_app\obj/../app/trap_handler.c:57
}
    2f9c:	03c12083          	lw	ra,60(sp)
    2fa0:	03812283          	lw	t0,56(sp)
    2fa4:	03412303          	lw	t1,52(sp)
    2fa8:	03012383          	lw	t2,48(sp)
    2fac:	02c12503          	lw	a0,44(sp)
    2fb0:	02812583          	lw	a1,40(sp)
    2fb4:	02412603          	lw	a2,36(sp)
    2fb8:	02012683          	lw	a3,32(sp)
    2fbc:	01c12703          	lw	a4,28(sp)
    2fc0:	01812783          	lw	a5,24(sp)
    2fc4:	01412803          	lw	a6,20(sp)
    2fc8:	01012883          	lw	a7,16(sp)
    2fcc:	00c12e03          	lw	t3,12(sp)
    2fd0:	00812e83          	lw	t4,8(sp)
    2fd4:	00412f03          	lw	t5,4(sp)
    2fd8:	00012f83          	lw	t6,0(sp)
    2fdc:	04010113          	addi	sp,sp,64
    2fe0:	30200073          	mret

00002fe4 <PLIC4_FPIOA_ELI3_Handler>:
PLIC4_FPIOA_ELI3_Handler():
d:\PDS\SparrowRV-master\bsp\bsp_app\obj/../app/trap_handler.c:61

void PLIC4_FPIOA_ELI3_Handler() __attribute__((interrupt("machine")));
void PLIC4_FPIOA_ELI3_Handler()
{
    2fe4:	fc010113          	addi	sp,sp,-64
    2fe8:	02a12623          	sw	a0,44(sp)
d:\PDS\SparrowRV-master\bsp\bsp_app\obj/../app/trap_handler.c:62
    csr_msprint_string("PLIC4_Hdler\n");
    2fec:	20021537          	lui	a0,0x20021
    2ff0:	6f850513          	addi	a0,a0,1784 # 200216f8 <template_data_0+0x830>
d:\PDS\SparrowRV-master\bsp\bsp_app\obj/../app/trap_handler.c:61
{
    2ff4:	02112e23          	sw	ra,60(sp)
    2ff8:	02512c23          	sw	t0,56(sp)
    2ffc:	02612a23          	sw	t1,52(sp)
    3000:	02712823          	sw	t2,48(sp)
    3004:	02b12423          	sw	a1,40(sp)
    3008:	02c12223          	sw	a2,36(sp)
    300c:	02d12023          	sw	a3,32(sp)
    3010:	00e12e23          	sw	a4,28(sp)
    3014:	00f12c23          	sw	a5,24(sp)
    3018:	01012a23          	sw	a6,20(sp)
    301c:	01112823          	sw	a7,16(sp)
    3020:	01c12623          	sw	t3,12(sp)
    3024:	01d12423          	sw	t4,8(sp)
    3028:	01e12223          	sw	t5,4(sp)
    302c:	01f12023          	sw	t6,0(sp)
d:\PDS\SparrowRV-master\bsp\bsp_app\obj/../app/trap_handler.c:62
    csr_msprint_string("PLIC4_Hdler\n");
    3030:	9d4fd0ef          	jal	ra,204 <csr_msprint_string>
d:\PDS\SparrowRV-master\bsp\bsp_app\obj/../app/trap_handler.c:63
}
    3034:	03c12083          	lw	ra,60(sp)
    3038:	03812283          	lw	t0,56(sp)
    303c:	03412303          	lw	t1,52(sp)
    3040:	03012383          	lw	t2,48(sp)
    3044:	02c12503          	lw	a0,44(sp)
    3048:	02812583          	lw	a1,40(sp)
    304c:	02412603          	lw	a2,36(sp)
    3050:	02012683          	lw	a3,32(sp)
    3054:	01c12703          	lw	a4,28(sp)
    3058:	01812783          	lw	a5,24(sp)
    305c:	01412803          	lw	a6,20(sp)
    3060:	01012883          	lw	a7,16(sp)
    3064:	00c12e03          	lw	t3,12(sp)
    3068:	00812e83          	lw	t4,8(sp)
    306c:	00412f03          	lw	t5,4(sp)
    3070:	00012f83          	lw	t6,0(sp)
    3074:	04010113          	addi	sp,sp,64
    3078:	30200073          	mret

0000307c <PLIC5_UART0_TX_Handler>:
PLIC5_UART0_TX_Handler():
d:\PDS\SparrowRV-master\bsp\bsp_app\obj/../app/trap_handler.c:67

void PLIC5_UART0_TX_Handler()   __attribute__((interrupt("machine")));
void PLIC5_UART0_TX_Handler()
{
    307c:	fc010113          	addi	sp,sp,-64
    3080:	02a12623          	sw	a0,44(sp)
d:\PDS\SparrowRV-master\bsp\bsp_app\obj/../app/trap_handler.c:68
    csr_msprint_string("PLIC5_Hdler\n");
    3084:	20021537          	lui	a0,0x20021
    3088:	70850513          	addi	a0,a0,1800 # 20021708 <template_data_0+0x840>
d:\PDS\SparrowRV-master\bsp\bsp_app\obj/../app/trap_handler.c:67
{
    308c:	02112e23          	sw	ra,60(sp)
    3090:	02512c23          	sw	t0,56(sp)
    3094:	02612a23          	sw	t1,52(sp)
    3098:	02712823          	sw	t2,48(sp)
    309c:	02b12423          	sw	a1,40(sp)
    30a0:	02c12223          	sw	a2,36(sp)
    30a4:	02d12023          	sw	a3,32(sp)
    30a8:	00e12e23          	sw	a4,28(sp)
    30ac:	00f12c23          	sw	a5,24(sp)
    30b0:	01012a23          	sw	a6,20(sp)
    30b4:	01112823          	sw	a7,16(sp)
    30b8:	01c12623          	sw	t3,12(sp)
    30bc:	01d12423          	sw	t4,8(sp)
    30c0:	01e12223          	sw	t5,4(sp)
    30c4:	01f12023          	sw	t6,0(sp)
d:\PDS\SparrowRV-master\bsp\bsp_app\obj/../app/trap_handler.c:68
    csr_msprint_string("PLIC5_Hdler\n");
    30c8:	93cfd0ef          	jal	ra,204 <csr_msprint_string>
d:\PDS\SparrowRV-master\bsp\bsp_app\obj/../app/trap_handler.c:69
}
    30cc:	03c12083          	lw	ra,60(sp)
    30d0:	03812283          	lw	t0,56(sp)
    30d4:	03412303          	lw	t1,52(sp)
    30d8:	03012383          	lw	t2,48(sp)
    30dc:	02c12503          	lw	a0,44(sp)
    30e0:	02812583          	lw	a1,40(sp)
    30e4:	02412603          	lw	a2,36(sp)
    30e8:	02012683          	lw	a3,32(sp)
    30ec:	01c12703          	lw	a4,28(sp)
    30f0:	01812783          	lw	a5,24(sp)
    30f4:	01412803          	lw	a6,20(sp)
    30f8:	01012883          	lw	a7,16(sp)
    30fc:	00c12e03          	lw	t3,12(sp)
    3100:	00812e83          	lw	t4,8(sp)
    3104:	00412f03          	lw	t5,4(sp)
    3108:	00012f83          	lw	t6,0(sp)
    310c:	04010113          	addi	sp,sp,64
    3110:	30200073          	mret

00003114 <PLIC6_UART0_RX_Handler>:
PLIC6_UART0_RX_Handler():
d:\PDS\SparrowRV-master\bsp\bsp_app\obj/../app/trap_handler.c:73

void PLIC6_UART0_RX_Handler()   __attribute__((interrupt("machine")));
void PLIC6_UART0_RX_Handler()
{
    3114:	fc010113          	addi	sp,sp,-64
    3118:	02a12623          	sw	a0,44(sp)
d:\PDS\SparrowRV-master\bsp\bsp_app\obj/../app/trap_handler.c:74
    csr_msprint_string("PLIC6_Hdler\n");
    311c:	20021537          	lui	a0,0x20021
    3120:	71850513          	addi	a0,a0,1816 # 20021718 <template_data_0+0x850>
d:\PDS\SparrowRV-master\bsp\bsp_app\obj/../app/trap_handler.c:73
{
    3124:	02112e23          	sw	ra,60(sp)
    3128:	02512c23          	sw	t0,56(sp)
    312c:	02612a23          	sw	t1,52(sp)
    3130:	02712823          	sw	t2,48(sp)
    3134:	02b12423          	sw	a1,40(sp)
    3138:	02c12223          	sw	a2,36(sp)
    313c:	02d12023          	sw	a3,32(sp)
    3140:	00e12e23          	sw	a4,28(sp)
    3144:	00f12c23          	sw	a5,24(sp)
    3148:	01012a23          	sw	a6,20(sp)
    314c:	01112823          	sw	a7,16(sp)
    3150:	01c12623          	sw	t3,12(sp)
    3154:	01d12423          	sw	t4,8(sp)
    3158:	01e12223          	sw	t5,4(sp)
    315c:	01f12023          	sw	t6,0(sp)
d:\PDS\SparrowRV-master\bsp\bsp_app\obj/../app/trap_handler.c:74
    csr_msprint_string("PLIC6_Hdler\n");
    3160:	8a4fd0ef          	jal	ra,204 <csr_msprint_string>
d:\PDS\SparrowRV-master\bsp\bsp_app\obj/../app/trap_handler.c:75
}
    3164:	03c12083          	lw	ra,60(sp)
    3168:	03812283          	lw	t0,56(sp)
    316c:	03412303          	lw	t1,52(sp)
    3170:	03012383          	lw	t2,48(sp)
    3174:	02c12503          	lw	a0,44(sp)
    3178:	02812583          	lw	a1,40(sp)
    317c:	02412603          	lw	a2,36(sp)
    3180:	02012683          	lw	a3,32(sp)
    3184:	01c12703          	lw	a4,28(sp)
    3188:	01812783          	lw	a5,24(sp)
    318c:	01412803          	lw	a6,20(sp)
    3190:	01012883          	lw	a7,16(sp)
    3194:	00c12e03          	lw	t3,12(sp)
    3198:	00812e83          	lw	t4,8(sp)
    319c:	00412f03          	lw	t5,4(sp)
    31a0:	00012f83          	lw	t6,0(sp)
    31a4:	04010113          	addi	sp,sp,64
    31a8:	30200073          	mret

000031ac <PLIC7_UART1_TX_Handler>:
PLIC7_UART1_TX_Handler():
d:\PDS\SparrowRV-master\bsp\bsp_app\obj/../app/trap_handler.c:79

void PLIC7_UART1_TX_Handler()   __attribute__((interrupt("machine")));
void PLIC7_UART1_TX_Handler()
{
    31ac:	fc010113          	addi	sp,sp,-64
    31b0:	02a12623          	sw	a0,44(sp)
d:\PDS\SparrowRV-master\bsp\bsp_app\obj/../app/trap_handler.c:80
    csr_msprint_string("PLIC7_Hdler\n");
    31b4:	20021537          	lui	a0,0x20021
    31b8:	72850513          	addi	a0,a0,1832 # 20021728 <template_data_0+0x860>
d:\PDS\SparrowRV-master\bsp\bsp_app\obj/../app/trap_handler.c:79
{
    31bc:	02112e23          	sw	ra,60(sp)
    31c0:	02512c23          	sw	t0,56(sp)
    31c4:	02612a23          	sw	t1,52(sp)
    31c8:	02712823          	sw	t2,48(sp)
    31cc:	02b12423          	sw	a1,40(sp)
    31d0:	02c12223          	sw	a2,36(sp)
    31d4:	02d12023          	sw	a3,32(sp)
    31d8:	00e12e23          	sw	a4,28(sp)
    31dc:	00f12c23          	sw	a5,24(sp)
    31e0:	01012a23          	sw	a6,20(sp)
    31e4:	01112823          	sw	a7,16(sp)
    31e8:	01c12623          	sw	t3,12(sp)
    31ec:	01d12423          	sw	t4,8(sp)
    31f0:	01e12223          	sw	t5,4(sp)
    31f4:	01f12023          	sw	t6,0(sp)
d:\PDS\SparrowRV-master\bsp\bsp_app\obj/../app/trap_handler.c:80
    csr_msprint_string("PLIC7_Hdler\n");
    31f8:	80cfd0ef          	jal	ra,204 <csr_msprint_string>
d:\PDS\SparrowRV-master\bsp\bsp_app\obj/../app/trap_handler.c:81
}
    31fc:	03c12083          	lw	ra,60(sp)
    3200:	03812283          	lw	t0,56(sp)
    3204:	03412303          	lw	t1,52(sp)
    3208:	03012383          	lw	t2,48(sp)
    320c:	02c12503          	lw	a0,44(sp)
    3210:	02812583          	lw	a1,40(sp)
    3214:	02412603          	lw	a2,36(sp)
    3218:	02012683          	lw	a3,32(sp)
    321c:	01c12703          	lw	a4,28(sp)
    3220:	01812783          	lw	a5,24(sp)
    3224:	01412803          	lw	a6,20(sp)
    3228:	01012883          	lw	a7,16(sp)
    322c:	00c12e03          	lw	t3,12(sp)
    3230:	00812e83          	lw	t4,8(sp)
    3234:	00412f03          	lw	t5,4(sp)
    3238:	00012f83          	lw	t6,0(sp)
    323c:	04010113          	addi	sp,sp,64
    3240:	30200073          	mret

00003244 <PLIC8_UART1_RX_Handler>:
PLIC8_UART1_RX_Handler():
d:\PDS\SparrowRV-master\bsp\bsp_app\obj/../app/trap_handler.c:85

void PLIC8_UART1_RX_Handler()   __attribute__((interrupt("machine")));
void PLIC8_UART1_RX_Handler()
{
    3244:	fc010113          	addi	sp,sp,-64
    3248:	02a12623          	sw	a0,44(sp)
d:\PDS\SparrowRV-master\bsp\bsp_app\obj/../app/trap_handler.c:86
    csr_msprint_string("PLIC8_Hdler\n");
    324c:	20021537          	lui	a0,0x20021
    3250:	73850513          	addi	a0,a0,1848 # 20021738 <template_data_0+0x870>
d:\PDS\SparrowRV-master\bsp\bsp_app\obj/../app/trap_handler.c:85
{
    3254:	02112e23          	sw	ra,60(sp)
    3258:	02512c23          	sw	t0,56(sp)
    325c:	02612a23          	sw	t1,52(sp)
    3260:	02712823          	sw	t2,48(sp)
    3264:	02b12423          	sw	a1,40(sp)
    3268:	02c12223          	sw	a2,36(sp)
    326c:	02d12023          	sw	a3,32(sp)
    3270:	00e12e23          	sw	a4,28(sp)
    3274:	00f12c23          	sw	a5,24(sp)
    3278:	01012a23          	sw	a6,20(sp)
    327c:	01112823          	sw	a7,16(sp)
    3280:	01c12623          	sw	t3,12(sp)
    3284:	01d12423          	sw	t4,8(sp)
    3288:	01e12223          	sw	t5,4(sp)
    328c:	01f12023          	sw	t6,0(sp)
d:\PDS\SparrowRV-master\bsp\bsp_app\obj/../app/trap_handler.c:86
    csr_msprint_string("PLIC8_Hdler\n");
    3290:	f75fc0ef          	jal	ra,204 <csr_msprint_string>
d:\PDS\SparrowRV-master\bsp\bsp_app\obj/../app/trap_handler.c:87
}
    3294:	03c12083          	lw	ra,60(sp)
    3298:	03812283          	lw	t0,56(sp)
    329c:	03412303          	lw	t1,52(sp)
    32a0:	03012383          	lw	t2,48(sp)
    32a4:	02c12503          	lw	a0,44(sp)
    32a8:	02812583          	lw	a1,40(sp)
    32ac:	02412603          	lw	a2,36(sp)
    32b0:	02012683          	lw	a3,32(sp)
    32b4:	01c12703          	lw	a4,28(sp)
    32b8:	01812783          	lw	a5,24(sp)
    32bc:	01412803          	lw	a6,20(sp)
    32c0:	01012883          	lw	a7,16(sp)
    32c4:	00c12e03          	lw	t3,12(sp)
    32c8:	00812e83          	lw	t4,8(sp)
    32cc:	00412f03          	lw	t5,4(sp)
    32d0:	00012f83          	lw	t6,0(sp)
    32d4:	04010113          	addi	sp,sp,64
    32d8:	30200073          	mret

000032dc <PLIC9_TIMER0_OF_Handler>:
PLIC9_TIMER0_OF_Handler():
d:\PDS\SparrowRV-master\bsp\bsp_app\obj/../app/trap_handler.c:91

void PLIC9_TIMER0_OF_Handler()  __attribute__((interrupt("machine")));
void PLIC9_TIMER0_OF_Handler()
{
    32dc:	fc010113          	addi	sp,sp,-64
    32e0:	02a12623          	sw	a0,44(sp)
d:\PDS\SparrowRV-master\bsp\bsp_app\obj/../app/trap_handler.c:92
    csr_msprint_string("PLIC9_Hdler\n");
    32e4:	20021537          	lui	a0,0x20021
    32e8:	74850513          	addi	a0,a0,1864 # 20021748 <template_data_0+0x880>
d:\PDS\SparrowRV-master\bsp\bsp_app\obj/../app/trap_handler.c:91
{
    32ec:	02112e23          	sw	ra,60(sp)
    32f0:	02512c23          	sw	t0,56(sp)
    32f4:	02612a23          	sw	t1,52(sp)
    32f8:	02712823          	sw	t2,48(sp)
    32fc:	02b12423          	sw	a1,40(sp)
    3300:	02c12223          	sw	a2,36(sp)
    3304:	02d12023          	sw	a3,32(sp)
    3308:	00e12e23          	sw	a4,28(sp)
    330c:	00f12c23          	sw	a5,24(sp)
    3310:	01012a23          	sw	a6,20(sp)
    3314:	01112823          	sw	a7,16(sp)
    3318:	01c12623          	sw	t3,12(sp)
    331c:	01d12423          	sw	t4,8(sp)
    3320:	01e12223          	sw	t5,4(sp)
    3324:	01f12023          	sw	t6,0(sp)
d:\PDS\SparrowRV-master\bsp\bsp_app\obj/../app/trap_handler.c:92
    csr_msprint_string("PLIC9_Hdler\n");
    3328:	eddfc0ef          	jal	ra,204 <csr_msprint_string>
d:\PDS\SparrowRV-master\bsp\bsp_app\obj/../app/trap_handler.c:93
}
    332c:	03c12083          	lw	ra,60(sp)
    3330:	03812283          	lw	t0,56(sp)
    3334:	03412303          	lw	t1,52(sp)
    3338:	03012383          	lw	t2,48(sp)
    333c:	02c12503          	lw	a0,44(sp)
    3340:	02812583          	lw	a1,40(sp)
    3344:	02412603          	lw	a2,36(sp)
    3348:	02012683          	lw	a3,32(sp)
    334c:	01c12703          	lw	a4,28(sp)
    3350:	01812783          	lw	a5,24(sp)
    3354:	01412803          	lw	a6,20(sp)
    3358:	01012883          	lw	a7,16(sp)
    335c:	00c12e03          	lw	t3,12(sp)
    3360:	00812e83          	lw	t4,8(sp)
    3364:	00412f03          	lw	t5,4(sp)
    3368:	00012f83          	lw	t6,0(sp)
    336c:	04010113          	addi	sp,sp,64
    3370:	30200073          	mret

00003374 <PLIC10_SPI0_END_Handler>:
PLIC10_SPI0_END_Handler():
d:\PDS\SparrowRV-master\bsp\bsp_app\obj/../app/trap_handler.c:97

void PLIC10_SPI0_END_Handler()  __attribute__((interrupt("machine")));
void PLIC10_SPI0_END_Handler()
{
    3374:	fc010113          	addi	sp,sp,-64
    3378:	02a12623          	sw	a0,44(sp)
d:\PDS\SparrowRV-master\bsp\bsp_app\obj/../app/trap_handler.c:98
    csr_msprint_string("PLIC10_Hdler\n");
    337c:	20021537          	lui	a0,0x20021
    3380:	75850513          	addi	a0,a0,1880 # 20021758 <template_data_0+0x890>
d:\PDS\SparrowRV-master\bsp\bsp_app\obj/../app/trap_handler.c:97
{
    3384:	02112e23          	sw	ra,60(sp)
    3388:	02512c23          	sw	t0,56(sp)
    338c:	02612a23          	sw	t1,52(sp)
    3390:	02712823          	sw	t2,48(sp)
    3394:	02b12423          	sw	a1,40(sp)
    3398:	02c12223          	sw	a2,36(sp)
    339c:	02d12023          	sw	a3,32(sp)
    33a0:	00e12e23          	sw	a4,28(sp)
    33a4:	00f12c23          	sw	a5,24(sp)
    33a8:	01012a23          	sw	a6,20(sp)
    33ac:	01112823          	sw	a7,16(sp)
    33b0:	01c12623          	sw	t3,12(sp)
    33b4:	01d12423          	sw	t4,8(sp)
    33b8:	01e12223          	sw	t5,4(sp)
    33bc:	01f12023          	sw	t6,0(sp)
d:\PDS\SparrowRV-master\bsp\bsp_app\obj/../app/trap_handler.c:98
    csr_msprint_string("PLIC10_Hdler\n");
    33c0:	e45fc0ef          	jal	ra,204 <csr_msprint_string>
d:\PDS\SparrowRV-master\bsp\bsp_app\obj/../app/trap_handler.c:99
}
    33c4:	03c12083          	lw	ra,60(sp)
    33c8:	03812283          	lw	t0,56(sp)
    33cc:	03412303          	lw	t1,52(sp)
    33d0:	03012383          	lw	t2,48(sp)
    33d4:	02c12503          	lw	a0,44(sp)
    33d8:	02812583          	lw	a1,40(sp)
    33dc:	02412603          	lw	a2,36(sp)
    33e0:	02012683          	lw	a3,32(sp)
    33e4:	01c12703          	lw	a4,28(sp)
    33e8:	01812783          	lw	a5,24(sp)
    33ec:	01412803          	lw	a6,20(sp)
    33f0:	01012883          	lw	a7,16(sp)
    33f4:	00c12e03          	lw	t3,12(sp)
    33f8:	00812e83          	lw	t4,8(sp)
    33fc:	00412f03          	lw	t5,4(sp)
    3400:	00012f83          	lw	t6,0(sp)
    3404:	04010113          	addi	sp,sp,64
    3408:	30200073          	mret

0000340c <__udivdi3>:
__udivdi3():
    340c:	00060813          	mv	a6,a2
    3410:	00050893          	mv	a7,a0
    3414:	00058713          	mv	a4,a1
    3418:	0e069263          	bnez	a3,34fc <__udivdi3+0xf0>
    341c:	14c5f263          	bgeu	a1,a2,3560 <__udivdi3+0x154>
    3420:	000107b7          	lui	a5,0x10
    3424:	20f66263          	bltu	a2,a5,3628 <__udivdi3+0x21c>
    3428:	010007b7          	lui	a5,0x1000
    342c:	00f637b3          	sltu	a5,a2,a5
    3430:	40f007b3          	neg	a5,a5
    3434:	ff87f793          	andi	a5,a5,-8
    3438:	01878793          	addi	a5,a5,24 # 1000018 <_app_prog_size+0xfc0018>
    343c:	00f65333          	srl	t1,a2,a5
    3440:	2001e697          	auipc	a3,0x2001e
    3444:	32868693          	addi	a3,a3,808 # 20021768 <__clz_tab>
    3448:	006686b3          	add	a3,a3,t1
    344c:	0006c683          	lbu	a3,0(a3)
    3450:	02000313          	li	t1,32
    3454:	00f687b3          	add	a5,a3,a5
    3458:	40f306b3          	sub	a3,t1,a5
    345c:	00f30c63          	beq	t1,a5,3474 <__udivdi3+0x68>
    3460:	00d59733          	sll	a4,a1,a3
    3464:	00f557b3          	srl	a5,a0,a5
    3468:	00d61833          	sll	a6,a2,a3
    346c:	00e7e733          	or	a4,a5,a4
    3470:	00d518b3          	sll	a7,a0,a3
    3474:	01085613          	srli	a2,a6,0x10
    3478:	02c75533          	divu	a0,a4,a2
    347c:	01081693          	slli	a3,a6,0x10
    3480:	0106d693          	srli	a3,a3,0x10
    3484:	0108d793          	srli	a5,a7,0x10
    3488:	02c77733          	remu	a4,a4,a2
    348c:	02a685b3          	mul	a1,a3,a0
    3490:	01071713          	slli	a4,a4,0x10
    3494:	00e7e7b3          	or	a5,a5,a4
    3498:	00b7fc63          	bgeu	a5,a1,34b0 <__udivdi3+0xa4>
    349c:	00f807b3          	add	a5,a6,a5
    34a0:	fff50713          	addi	a4,a0,-1
    34a4:	0107e463          	bltu	a5,a6,34ac <__udivdi3+0xa0>
    34a8:	40b7e263          	bltu	a5,a1,38ac <__udivdi3+0x4a0>
    34ac:	00070513          	mv	a0,a4
    34b0:	40b787b3          	sub	a5,a5,a1
    34b4:	02c7d733          	divu	a4,a5,a2
    34b8:	01089893          	slli	a7,a7,0x10
    34bc:	0108d893          	srli	a7,a7,0x10
    34c0:	02c7f7b3          	remu	a5,a5,a2
    34c4:	02e686b3          	mul	a3,a3,a4
    34c8:	01079793          	slli	a5,a5,0x10
    34cc:	00f8e8b3          	or	a7,a7,a5
    34d0:	00d8fe63          	bgeu	a7,a3,34ec <__udivdi3+0xe0>
    34d4:	011808b3          	add	a7,a6,a7
    34d8:	fff70793          	addi	a5,a4,-1
    34dc:	0108e663          	bltu	a7,a6,34e8 <__udivdi3+0xdc>
    34e0:	ffe70713          	addi	a4,a4,-2
    34e4:	00d8e463          	bltu	a7,a3,34ec <__udivdi3+0xe0>
    34e8:	00078713          	mv	a4,a5
    34ec:	01051513          	slli	a0,a0,0x10
    34f0:	00e56533          	or	a0,a0,a4
    34f4:	00000593          	li	a1,0
    34f8:	00008067          	ret
    34fc:	00d5f863          	bgeu	a1,a3,350c <__udivdi3+0x100>
    3500:	00000593          	li	a1,0
    3504:	00000513          	li	a0,0
    3508:	00008067          	ret
    350c:	000107b7          	lui	a5,0x10
    3510:	1ef6ea63          	bltu	a3,a5,3704 <__udivdi3+0x2f8>
    3514:	010007b7          	lui	a5,0x1000
    3518:	00f6b7b3          	sltu	a5,a3,a5
    351c:	40f007b3          	neg	a5,a5
    3520:	ff87f793          	andi	a5,a5,-8
    3524:	01878793          	addi	a5,a5,24 # 1000018 <_app_prog_size+0xfc0018>
    3528:	00f6d833          	srl	a6,a3,a5
    352c:	2001e717          	auipc	a4,0x2001e
    3530:	23c70713          	addi	a4,a4,572 # 20021768 <__clz_tab>
    3534:	01070733          	add	a4,a4,a6
    3538:	00074703          	lbu	a4,0(a4)
    353c:	02000893          	li	a7,32
    3540:	00f70733          	add	a4,a4,a5
    3544:	40e88833          	sub	a6,a7,a4
    3548:	1ee89663          	bne	a7,a4,3734 <__udivdi3+0x328>
    354c:	32b6e463          	bltu	a3,a1,3874 <__udivdi3+0x468>
    3550:	00c53533          	sltu	a0,a0,a2
    3554:	00154513          	xori	a0,a0,1
    3558:	00000593          	li	a1,0
    355c:	00008067          	ret
    3560:	0c060c63          	beqz	a2,3638 <__udivdi3+0x22c>
    3564:	000107b7          	lui	a5,0x10
    3568:	2ef67c63          	bgeu	a2,a5,3860 <__udivdi3+0x454>
    356c:	10063713          	sltiu	a4,a2,256
    3570:	00174713          	xori	a4,a4,1
    3574:	00371713          	slli	a4,a4,0x3
    3578:	00e656b3          	srl	a3,a2,a4
    357c:	2001e797          	auipc	a5,0x2001e
    3580:	1ec78793          	addi	a5,a5,492 # 20021768 <__clz_tab>
    3584:	00d787b3          	add	a5,a5,a3
    3588:	0007c783          	lbu	a5,0(a5)
    358c:	02000693          	li	a3,32
    3590:	00e787b3          	add	a5,a5,a4
    3594:	40f68eb3          	sub	t4,a3,a5
    3598:	0cf69463          	bne	a3,a5,3660 <__udivdi3+0x254>
    359c:	40c587b3          	sub	a5,a1,a2
    35a0:	01065693          	srli	a3,a2,0x10
    35a4:	01061613          	slli	a2,a2,0x10
    35a8:	01065613          	srli	a2,a2,0x10
    35ac:	00100593          	li	a1,1
    35b0:	02d7d533          	divu	a0,a5,a3
    35b4:	0108d713          	srli	a4,a7,0x10
    35b8:	02d7f7b3          	remu	a5,a5,a3
    35bc:	02c50333          	mul	t1,a0,a2
    35c0:	01079793          	slli	a5,a5,0x10
    35c4:	00f767b3          	or	a5,a4,a5
    35c8:	0067fc63          	bgeu	a5,t1,35e0 <__udivdi3+0x1d4>
    35cc:	00f807b3          	add	a5,a6,a5
    35d0:	fff50713          	addi	a4,a0,-1
    35d4:	0107e463          	bltu	a5,a6,35dc <__udivdi3+0x1d0>
    35d8:	2c67e463          	bltu	a5,t1,38a0 <__udivdi3+0x494>
    35dc:	00070513          	mv	a0,a4
    35e0:	406787b3          	sub	a5,a5,t1
    35e4:	02d7d733          	divu	a4,a5,a3
    35e8:	01089893          	slli	a7,a7,0x10
    35ec:	0108d893          	srli	a7,a7,0x10
    35f0:	02d7f7b3          	remu	a5,a5,a3
    35f4:	02c70633          	mul	a2,a4,a2
    35f8:	01079793          	slli	a5,a5,0x10
    35fc:	00f8e8b3          	or	a7,a7,a5
    3600:	00c8fe63          	bgeu	a7,a2,361c <__udivdi3+0x210>
    3604:	011808b3          	add	a7,a6,a7
    3608:	fff70793          	addi	a5,a4,-1
    360c:	0108e663          	bltu	a7,a6,3618 <__udivdi3+0x20c>
    3610:	ffe70713          	addi	a4,a4,-2
    3614:	00c8e463          	bltu	a7,a2,361c <__udivdi3+0x210>
    3618:	00078713          	mv	a4,a5
    361c:	01051513          	slli	a0,a0,0x10
    3620:	00e56533          	or	a0,a0,a4
    3624:	00008067          	ret
    3628:	10063793          	sltiu	a5,a2,256
    362c:	0017c793          	xori	a5,a5,1
    3630:	00379793          	slli	a5,a5,0x3
    3634:	e09ff06f          	j	343c <__udivdi3+0x30>
    3638:	00000693          	li	a3,0
    363c:	2001e797          	auipc	a5,0x2001e
    3640:	12c78793          	addi	a5,a5,300 # 20021768 <__clz_tab>
    3644:	00d787b3          	add	a5,a5,a3
    3648:	0007c783          	lbu	a5,0(a5)
    364c:	00000713          	li	a4,0
    3650:	02000693          	li	a3,32
    3654:	00e787b3          	add	a5,a5,a4
    3658:	40f68eb3          	sub	t4,a3,a5
    365c:	f4f680e3          	beq	a3,a5,359c <__udivdi3+0x190>
    3660:	01d61833          	sll	a6,a2,t4
    3664:	00f5d333          	srl	t1,a1,a5
    3668:	01085693          	srli	a3,a6,0x10
    366c:	02d35e33          	divu	t3,t1,a3
    3670:	01081613          	slli	a2,a6,0x10
    3674:	01d595b3          	sll	a1,a1,t4
    3678:	01065613          	srli	a2,a2,0x10
    367c:	00f557b3          	srl	a5,a0,a5
    3680:	00b7e7b3          	or	a5,a5,a1
    3684:	0107d713          	srli	a4,a5,0x10
    3688:	01d518b3          	sll	a7,a0,t4
    368c:	02d37333          	remu	t1,t1,a3
    3690:	03c605b3          	mul	a1,a2,t3
    3694:	01031313          	slli	t1,t1,0x10
    3698:	00676733          	or	a4,a4,t1
    369c:	00b77e63          	bgeu	a4,a1,36b8 <__udivdi3+0x2ac>
    36a0:	00e80733          	add	a4,a6,a4
    36a4:	fffe0513          	addi	a0,t3,-1
    36a8:	1f076463          	bltu	a4,a6,3890 <__udivdi3+0x484>
    36ac:	1eb77263          	bgeu	a4,a1,3890 <__udivdi3+0x484>
    36b0:	ffee0e13          	addi	t3,t3,-2
    36b4:	01070733          	add	a4,a4,a6
    36b8:	40b70733          	sub	a4,a4,a1
    36bc:	02d75533          	divu	a0,a4,a3
    36c0:	01079793          	slli	a5,a5,0x10
    36c4:	0107d793          	srli	a5,a5,0x10
    36c8:	02d77733          	remu	a4,a4,a3
    36cc:	02a60333          	mul	t1,a2,a0
    36d0:	01071713          	slli	a4,a4,0x10
    36d4:	00e7e7b3          	or	a5,a5,a4
    36d8:	0067fe63          	bgeu	a5,t1,36f4 <__udivdi3+0x2e8>
    36dc:	00f807b3          	add	a5,a6,a5
    36e0:	fff50713          	addi	a4,a0,-1
    36e4:	1907ee63          	bltu	a5,a6,3880 <__udivdi3+0x474>
    36e8:	1867fc63          	bgeu	a5,t1,3880 <__udivdi3+0x474>
    36ec:	ffe50513          	addi	a0,a0,-2
    36f0:	010787b3          	add	a5,a5,a6
    36f4:	010e1593          	slli	a1,t3,0x10
    36f8:	406787b3          	sub	a5,a5,t1
    36fc:	00a5e5b3          	or	a1,a1,a0
    3700:	eb1ff06f          	j	35b0 <__udivdi3+0x1a4>
    3704:	1006b793          	sltiu	a5,a3,256
    3708:	0017c793          	xori	a5,a5,1
    370c:	00379793          	slli	a5,a5,0x3
    3710:	00f6d833          	srl	a6,a3,a5
    3714:	2001e717          	auipc	a4,0x2001e
    3718:	05470713          	addi	a4,a4,84 # 20021768 <__clz_tab>
    371c:	01070733          	add	a4,a4,a6
    3720:	00074703          	lbu	a4,0(a4)
    3724:	02000893          	li	a7,32
    3728:	00f70733          	add	a4,a4,a5
    372c:	40e88833          	sub	a6,a7,a4
    3730:	e0e88ee3          	beq	a7,a4,354c <__udivdi3+0x140>
    3734:	00e65e33          	srl	t3,a2,a4
    3738:	010696b3          	sll	a3,a3,a6
    373c:	00de6e33          	or	t3,t3,a3
    3740:	00e5d8b3          	srl	a7,a1,a4
    3744:	010e5e93          	srli	t4,t3,0x10
    3748:	03d8d7b3          	divu	a5,a7,t4
    374c:	010e1313          	slli	t1,t3,0x10
    3750:	010595b3          	sll	a1,a1,a6
    3754:	01035313          	srli	t1,t1,0x10
    3758:	00e55733          	srl	a4,a0,a4
    375c:	00b76733          	or	a4,a4,a1
    3760:	01075693          	srli	a3,a4,0x10
    3764:	01061633          	sll	a2,a2,a6
    3768:	03d8f8b3          	remu	a7,a7,t4
    376c:	02f305b3          	mul	a1,t1,a5
    3770:	01089893          	slli	a7,a7,0x10
    3774:	0116e6b3          	or	a3,a3,a7
    3778:	00b6fe63          	bgeu	a3,a1,3794 <__udivdi3+0x388>
    377c:	00de06b3          	add	a3,t3,a3
    3780:	fff78893          	addi	a7,a5,-1
    3784:	11c6ea63          	bltu	a3,t3,3898 <__udivdi3+0x48c>
    3788:	10b6f863          	bgeu	a3,a1,3898 <__udivdi3+0x48c>
    378c:	ffe78793          	addi	a5,a5,-2
    3790:	01c686b3          	add	a3,a3,t3
    3794:	40b686b3          	sub	a3,a3,a1
    3798:	03d6d5b3          	divu	a1,a3,t4
    379c:	01071713          	slli	a4,a4,0x10
    37a0:	01075713          	srli	a4,a4,0x10
    37a4:	03d6f6b3          	remu	a3,a3,t4
    37a8:	02b308b3          	mul	a7,t1,a1
    37ac:	01069693          	slli	a3,a3,0x10
    37b0:	00d76733          	or	a4,a4,a3
    37b4:	01177e63          	bgeu	a4,a7,37d0 <__udivdi3+0x3c4>
    37b8:	00ee0733          	add	a4,t3,a4
    37bc:	fff58693          	addi	a3,a1,-1
    37c0:	0dc76463          	bltu	a4,t3,3888 <__udivdi3+0x47c>
    37c4:	0d177263          	bgeu	a4,a7,3888 <__udivdi3+0x47c>
    37c8:	ffe58593          	addi	a1,a1,-2
    37cc:	01c70733          	add	a4,a4,t3
    37d0:	01079793          	slli	a5,a5,0x10
    37d4:	00010eb7          	lui	t4,0x10
    37d8:	00b7e7b3          	or	a5,a5,a1
    37dc:	fffe8693          	addi	a3,t4,-1 # ffff <__stack_size+0xbfff>
    37e0:	00d7f5b3          	and	a1,a5,a3
    37e4:	0107d313          	srli	t1,a5,0x10
    37e8:	00d676b3          	and	a3,a2,a3
    37ec:	01065613          	srli	a2,a2,0x10
    37f0:	02d58e33          	mul	t3,a1,a3
    37f4:	41170733          	sub	a4,a4,a7
    37f8:	02d306b3          	mul	a3,t1,a3
    37fc:	010e5893          	srli	a7,t3,0x10
    3800:	02c585b3          	mul	a1,a1,a2
    3804:	00d585b3          	add	a1,a1,a3
    3808:	00b885b3          	add	a1,a7,a1
    380c:	02c30333          	mul	t1,t1,a2
    3810:	00d5f463          	bgeu	a1,a3,3818 <__udivdi3+0x40c>
    3814:	01d30333          	add	t1,t1,t4
    3818:	0105d693          	srli	a3,a1,0x10
    381c:	006686b3          	add	a3,a3,t1
    3820:	02d76a63          	bltu	a4,a3,3854 <__udivdi3+0x448>
    3824:	00d70863          	beq	a4,a3,3834 <__udivdi3+0x428>
    3828:	00078513          	mv	a0,a5
    382c:	00000593          	li	a1,0
    3830:	00008067          	ret
    3834:	000106b7          	lui	a3,0x10
    3838:	fff68693          	addi	a3,a3,-1 # ffff <__stack_size+0xbfff>
    383c:	00d5f733          	and	a4,a1,a3
    3840:	01071713          	slli	a4,a4,0x10
    3844:	00de7e33          	and	t3,t3,a3
    3848:	01051533          	sll	a0,a0,a6
    384c:	01c70733          	add	a4,a4,t3
    3850:	fce57ce3          	bgeu	a0,a4,3828 <__udivdi3+0x41c>
    3854:	fff78513          	addi	a0,a5,-1
    3858:	00000593          	li	a1,0
    385c:	00008067          	ret
    3860:	010007b7          	lui	a5,0x1000
    3864:	04f67a63          	bgeu	a2,a5,38b8 <__udivdi3+0x4ac>
    3868:	01065693          	srli	a3,a2,0x10
    386c:	01000713          	li	a4,16
    3870:	d0dff06f          	j	357c <__udivdi3+0x170>
    3874:	00000593          	li	a1,0
    3878:	00100513          	li	a0,1
    387c:	00008067          	ret
    3880:	00070513          	mv	a0,a4
    3884:	e71ff06f          	j	36f4 <__udivdi3+0x2e8>
    3888:	00068593          	mv	a1,a3
    388c:	f45ff06f          	j	37d0 <__udivdi3+0x3c4>
    3890:	00050e13          	mv	t3,a0
    3894:	e25ff06f          	j	36b8 <__udivdi3+0x2ac>
    3898:	00088793          	mv	a5,a7
    389c:	ef9ff06f          	j	3794 <__udivdi3+0x388>
    38a0:	ffe50513          	addi	a0,a0,-2
    38a4:	010787b3          	add	a5,a5,a6
    38a8:	d39ff06f          	j	35e0 <__udivdi3+0x1d4>
    38ac:	ffe50513          	addi	a0,a0,-2
    38b0:	010787b3          	add	a5,a5,a6
    38b4:	bfdff06f          	j	34b0 <__udivdi3+0xa4>
    38b8:	01865693          	srli	a3,a2,0x18
    38bc:	01800713          	li	a4,24
    38c0:	cbdff06f          	j	357c <__udivdi3+0x170>

000038c4 <__umoddi3>:
__umoddi3():
    38c4:	00060813          	mv	a6,a2
    38c8:	00050893          	mv	a7,a0
    38cc:	00058313          	mv	t1,a1
    38d0:	00058713          	mv	a4,a1
    38d4:	0c069a63          	bnez	a3,39a8 <__umoddi3+0xe4>
    38d8:	12c5fe63          	bgeu	a1,a2,3a14 <__umoddi3+0x150>
    38dc:	000107b7          	lui	a5,0x10
    38e0:	1ef66063          	bltu	a2,a5,3ac0 <__umoddi3+0x1fc>
    38e4:	010007b7          	lui	a5,0x1000
    38e8:	00f637b3          	sltu	a5,a2,a5
    38ec:	40f007b3          	neg	a5,a5
    38f0:	ff87f793          	andi	a5,a5,-8
    38f4:	01878793          	addi	a5,a5,24 # 1000018 <_app_prog_size+0xfc0018>
    38f8:	00f65333          	srl	t1,a2,a5
    38fc:	2001e697          	auipc	a3,0x2001e
    3900:	e6c68693          	addi	a3,a3,-404 # 20021768 <__clz_tab>
    3904:	006686b3          	add	a3,a3,t1
    3908:	0006c683          	lbu	a3,0(a3)
    390c:	02000313          	li	t1,32
    3910:	00f687b3          	add	a5,a3,a5
    3914:	40f306b3          	sub	a3,t1,a5
    3918:	00f30c63          	beq	t1,a5,3930 <__umoddi3+0x6c>
    391c:	00d59733          	sll	a4,a1,a3
    3920:	00f557b3          	srl	a5,a0,a5
    3924:	00d61833          	sll	a6,a2,a3
    3928:	00e7e733          	or	a4,a5,a4
    392c:	00d518b3          	sll	a7,a0,a3
    3930:	01085593          	srli	a1,a6,0x10
    3934:	02b75633          	divu	a2,a4,a1
    3938:	01081313          	slli	t1,a6,0x10
    393c:	01035313          	srli	t1,t1,0x10
    3940:	0108d793          	srli	a5,a7,0x10
    3944:	02b77733          	remu	a4,a4,a1
    3948:	02660633          	mul	a2,a2,t1
    394c:	01071713          	slli	a4,a4,0x10
    3950:	00e7e7b3          	or	a5,a5,a4
    3954:	00c7f863          	bgeu	a5,a2,3964 <__umoddi3+0xa0>
    3958:	00f807b3          	add	a5,a6,a5
    395c:	0107e463          	bltu	a5,a6,3964 <__umoddi3+0xa0>
    3960:	3cc7e463          	bltu	a5,a2,3d28 <__umoddi3+0x464>
    3964:	40c787b3          	sub	a5,a5,a2
    3968:	02b7d733          	divu	a4,a5,a1
    396c:	01089513          	slli	a0,a7,0x10
    3970:	01055513          	srli	a0,a0,0x10
    3974:	02b7f7b3          	remu	a5,a5,a1
    3978:	02670733          	mul	a4,a4,t1
    397c:	01079793          	slli	a5,a5,0x10
    3980:	00f56533          	or	a0,a0,a5
    3984:	00e57a63          	bgeu	a0,a4,3998 <__umoddi3+0xd4>
    3988:	00a80533          	add	a0,a6,a0
    398c:	01056663          	bltu	a0,a6,3998 <__umoddi3+0xd4>
    3990:	00e57463          	bgeu	a0,a4,3998 <__umoddi3+0xd4>
    3994:	01050533          	add	a0,a0,a6
    3998:	40e50533          	sub	a0,a0,a4
    399c:	00d55533          	srl	a0,a0,a3
    39a0:	00000593          	li	a1,0
    39a4:	00008067          	ret
    39a8:	00d5f463          	bgeu	a1,a3,39b0 <__umoddi3+0xec>
    39ac:	00008067          	ret
    39b0:	000107b7          	lui	a5,0x10
    39b4:	1cf6e863          	bltu	a3,a5,3b84 <__umoddi3+0x2c0>
    39b8:	010007b7          	lui	a5,0x1000
    39bc:	00f6b7b3          	sltu	a5,a3,a5
    39c0:	40f007b3          	neg	a5,a5
    39c4:	ff87f793          	andi	a5,a5,-8
    39c8:	01878793          	addi	a5,a5,24 # 1000018 <_app_prog_size+0xfc0018>
    39cc:	00f6d833          	srl	a6,a3,a5
    39d0:	2001e717          	auipc	a4,0x2001e
    39d4:	d9870713          	addi	a4,a4,-616 # 20021768 <__clz_tab>
    39d8:	01070733          	add	a4,a4,a6
    39dc:	00074703          	lbu	a4,0(a4)
    39e0:	02000e13          	li	t3,32
    39e4:	00f70733          	add	a4,a4,a5
    39e8:	40ee0833          	sub	a6,t3,a4
    39ec:	1cee1463          	bne	t3,a4,3bb4 <__umoddi3+0x2f0>
    39f0:	00b6e463          	bltu	a3,a1,39f8 <__umoddi3+0x134>
    39f4:	00c56a63          	bltu	a0,a2,3a08 <__umoddi3+0x144>
    39f8:	40c508b3          	sub	a7,a0,a2
    39fc:	40d586b3          	sub	a3,a1,a3
    3a00:	01153333          	sltu	t1,a0,a7
    3a04:	40668333          	sub	t1,a3,t1
    3a08:	00088513          	mv	a0,a7
    3a0c:	00030593          	mv	a1,t1
    3a10:	00008067          	ret
    3a14:	0a060e63          	beqz	a2,3ad0 <__umoddi3+0x20c>
    3a18:	000107b7          	lui	a5,0x10
    3a1c:	2ef67463          	bgeu	a2,a5,3d04 <__umoddi3+0x440>
    3a20:	10063713          	sltiu	a4,a2,256
    3a24:	00174713          	xori	a4,a4,1
    3a28:	00371713          	slli	a4,a4,0x3
    3a2c:	00e656b3          	srl	a3,a2,a4
    3a30:	2001e797          	auipc	a5,0x2001e
    3a34:	d3878793          	addi	a5,a5,-712 # 20021768 <__clz_tab>
    3a38:	00d787b3          	add	a5,a5,a3
    3a3c:	0007c783          	lbu	a5,0(a5)
    3a40:	02000313          	li	t1,32
    3a44:	00e787b3          	add	a5,a5,a4
    3a48:	40f306b3          	sub	a3,t1,a5
    3a4c:	0af31663          	bne	t1,a5,3af8 <__umoddi3+0x234>
    3a50:	40c58733          	sub	a4,a1,a2
    3a54:	01065313          	srli	t1,a2,0x10
    3a58:	01061613          	slli	a2,a2,0x10
    3a5c:	01065613          	srli	a2,a2,0x10
    3a60:	026755b3          	divu	a1,a4,t1
    3a64:	0108d793          	srli	a5,a7,0x10
    3a68:	02677733          	remu	a4,a4,t1
    3a6c:	02c585b3          	mul	a1,a1,a2
    3a70:	01071713          	slli	a4,a4,0x10
    3a74:	00e7e7b3          	or	a5,a5,a4
    3a78:	00b7fa63          	bgeu	a5,a1,3a8c <__umoddi3+0x1c8>
    3a7c:	00f807b3          	add	a5,a6,a5
    3a80:	0107e663          	bltu	a5,a6,3a8c <__umoddi3+0x1c8>
    3a84:	00b7f463          	bgeu	a5,a1,3a8c <__umoddi3+0x1c8>
    3a88:	010787b3          	add	a5,a5,a6
    3a8c:	40b787b3          	sub	a5,a5,a1
    3a90:	0267d733          	divu	a4,a5,t1
    3a94:	01089893          	slli	a7,a7,0x10
    3a98:	0108d893          	srli	a7,a7,0x10
    3a9c:	0267f7b3          	remu	a5,a5,t1
    3aa0:	02c70733          	mul	a4,a4,a2
    3aa4:	01079513          	slli	a0,a5,0x10
    3aa8:	00a8e533          	or	a0,a7,a0
    3aac:	ece56ee3          	bltu	a0,a4,3988 <__umoddi3+0xc4>
    3ab0:	40e50533          	sub	a0,a0,a4
    3ab4:	00d55533          	srl	a0,a0,a3
    3ab8:	00000593          	li	a1,0
    3abc:	00008067          	ret
    3ac0:	10063793          	sltiu	a5,a2,256
    3ac4:	0017c793          	xori	a5,a5,1
    3ac8:	00379793          	slli	a5,a5,0x3
    3acc:	e2dff06f          	j	38f8 <__umoddi3+0x34>
    3ad0:	00000693          	li	a3,0
    3ad4:	2001e797          	auipc	a5,0x2001e
    3ad8:	c9478793          	addi	a5,a5,-876 # 20021768 <__clz_tab>
    3adc:	00d787b3          	add	a5,a5,a3
    3ae0:	0007c783          	lbu	a5,0(a5)
    3ae4:	00000713          	li	a4,0
    3ae8:	02000313          	li	t1,32
    3aec:	00e787b3          	add	a5,a5,a4
    3af0:	40f306b3          	sub	a3,t1,a5
    3af4:	f4f30ee3          	beq	t1,a5,3a50 <__umoddi3+0x18c>
    3af8:	00d61833          	sll	a6,a2,a3
    3afc:	00f5de33          	srl	t3,a1,a5
    3b00:	01085313          	srli	t1,a6,0x10
    3b04:	026e5eb3          	divu	t4,t3,t1
    3b08:	01081613          	slli	a2,a6,0x10
    3b0c:	00d595b3          	sll	a1,a1,a3
    3b10:	00f55733          	srl	a4,a0,a5
    3b14:	01065613          	srli	a2,a2,0x10
    3b18:	00b76733          	or	a4,a4,a1
    3b1c:	01075793          	srli	a5,a4,0x10
    3b20:	00d518b3          	sll	a7,a0,a3
    3b24:	026e7e33          	remu	t3,t3,t1
    3b28:	02ce85b3          	mul	a1,t4,a2
    3b2c:	010e1e13          	slli	t3,t3,0x10
    3b30:	01c7e7b3          	or	a5,a5,t3
    3b34:	00b7fa63          	bgeu	a5,a1,3b48 <__umoddi3+0x284>
    3b38:	00f807b3          	add	a5,a6,a5
    3b3c:	0107e663          	bltu	a5,a6,3b48 <__umoddi3+0x284>
    3b40:	00b7f463          	bgeu	a5,a1,3b48 <__umoddi3+0x284>
    3b44:	010787b3          	add	a5,a5,a6
    3b48:	40b787b3          	sub	a5,a5,a1
    3b4c:	0267d5b3          	divu	a1,a5,t1
    3b50:	01071713          	slli	a4,a4,0x10
    3b54:	01075713          	srli	a4,a4,0x10
    3b58:	0267f7b3          	remu	a5,a5,t1
    3b5c:	02c585b3          	mul	a1,a1,a2
    3b60:	01079793          	slli	a5,a5,0x10
    3b64:	00f76733          	or	a4,a4,a5
    3b68:	00b77a63          	bgeu	a4,a1,3b7c <__umoddi3+0x2b8>
    3b6c:	00e80733          	add	a4,a6,a4
    3b70:	01076663          	bltu	a4,a6,3b7c <__umoddi3+0x2b8>
    3b74:	00b77463          	bgeu	a4,a1,3b7c <__umoddi3+0x2b8>
    3b78:	01070733          	add	a4,a4,a6
    3b7c:	40b70733          	sub	a4,a4,a1
    3b80:	ee1ff06f          	j	3a60 <__umoddi3+0x19c>
    3b84:	1006b793          	sltiu	a5,a3,256
    3b88:	0017c793          	xori	a5,a5,1
    3b8c:	00379793          	slli	a5,a5,0x3
    3b90:	00f6d833          	srl	a6,a3,a5
    3b94:	2001e717          	auipc	a4,0x2001e
    3b98:	bd470713          	addi	a4,a4,-1068 # 20021768 <__clz_tab>
    3b9c:	01070733          	add	a4,a4,a6
    3ba0:	00074703          	lbu	a4,0(a4)
    3ba4:	02000e13          	li	t3,32
    3ba8:	00f70733          	add	a4,a4,a5
    3bac:	40ee0833          	sub	a6,t3,a4
    3bb0:	e4ee00e3          	beq	t3,a4,39f0 <__umoddi3+0x12c>
    3bb4:	010696b3          	sll	a3,a3,a6
    3bb8:	00e658b3          	srl	a7,a2,a4
    3bbc:	00d8e8b3          	or	a7,a7,a3
    3bc0:	00e5de33          	srl	t3,a1,a4
    3bc4:	0108df13          	srli	t5,a7,0x10
    3bc8:	03ee57b3          	divu	a5,t3,t5
    3bcc:	01089e93          	slli	t4,a7,0x10
    3bd0:	010ede93          	srli	t4,t4,0x10
    3bd4:	00e556b3          	srl	a3,a0,a4
    3bd8:	01051333          	sll	t1,a0,a6
    3bdc:	010595b3          	sll	a1,a1,a6
    3be0:	00b6e5b3          	or	a1,a3,a1
    3be4:	0105d693          	srli	a3,a1,0x10
    3be8:	01061633          	sll	a2,a2,a6
    3bec:	03ee7e33          	remu	t3,t3,t5
    3bf0:	02fe8533          	mul	a0,t4,a5
    3bf4:	010e1e13          	slli	t3,t3,0x10
    3bf8:	01c6e6b3          	or	a3,a3,t3
    3bfc:	00a6fe63          	bgeu	a3,a0,3c18 <__umoddi3+0x354>
    3c00:	00d886b3          	add	a3,a7,a3
    3c04:	fff78e13          	addi	t3,a5,-1
    3c08:	1116ec63          	bltu	a3,a7,3d20 <__umoddi3+0x45c>
    3c0c:	10a6fa63          	bgeu	a3,a0,3d20 <__umoddi3+0x45c>
    3c10:	ffe78793          	addi	a5,a5,-2
    3c14:	011686b3          	add	a3,a3,a7
    3c18:	40a686b3          	sub	a3,a3,a0
    3c1c:	03e6d533          	divu	a0,a3,t5
    3c20:	01059593          	slli	a1,a1,0x10
    3c24:	0105d593          	srli	a1,a1,0x10
    3c28:	03e6f6b3          	remu	a3,a3,t5
    3c2c:	02ae8eb3          	mul	t4,t4,a0
    3c30:	01069693          	slli	a3,a3,0x10
    3c34:	00d5e5b3          	or	a1,a1,a3
    3c38:	01d5fe63          	bgeu	a1,t4,3c54 <__umoddi3+0x390>
    3c3c:	00b885b3          	add	a1,a7,a1
    3c40:	fff50693          	addi	a3,a0,-1
    3c44:	0d15ea63          	bltu	a1,a7,3d18 <__umoddi3+0x454>
    3c48:	0dd5f863          	bgeu	a1,t4,3d18 <__umoddi3+0x454>
    3c4c:	ffe50513          	addi	a0,a0,-2
    3c50:	011585b3          	add	a1,a1,a7
    3c54:	01079693          	slli	a3,a5,0x10
    3c58:	000102b7          	lui	t0,0x10
    3c5c:	00a6e6b3          	or	a3,a3,a0
    3c60:	fff28513          	addi	a0,t0,-1 # ffff <__stack_size+0xbfff>
    3c64:	00a6fe33          	and	t3,a3,a0
    3c68:	01065f93          	srli	t6,a2,0x10
    3c6c:	0106d693          	srli	a3,a3,0x10
    3c70:	00a67533          	and	a0,a2,a0
    3c74:	02ae0f33          	mul	t5,t3,a0
    3c78:	41d585b3          	sub	a1,a1,t4
    3c7c:	02a68533          	mul	a0,a3,a0
    3c80:	010f5793          	srli	a5,t5,0x10
    3c84:	03fe0e33          	mul	t3,t3,t6
    3c88:	00ae0e33          	add	t3,t3,a0
    3c8c:	01c787b3          	add	a5,a5,t3
    3c90:	03f686b3          	mul	a3,a3,t6
    3c94:	00a7f463          	bgeu	a5,a0,3c9c <__umoddi3+0x3d8>
    3c98:	005686b3          	add	a3,a3,t0
    3c9c:	00010eb7          	lui	t4,0x10
    3ca0:	fffe8e93          	addi	t4,t4,-1 # ffff <__stack_size+0xbfff>
    3ca4:	01d7f533          	and	a0,a5,t4
    3ca8:	0107de13          	srli	t3,a5,0x10
    3cac:	01051513          	slli	a0,a0,0x10
    3cb0:	01df7f33          	and	t5,t5,t4
    3cb4:	00de07b3          	add	a5,t3,a3
    3cb8:	01e50533          	add	a0,a0,t5
    3cbc:	02f5e863          	bltu	a1,a5,3cec <__umoddi3+0x428>
    3cc0:	02f58463          	beq	a1,a5,3ce8 <__umoddi3+0x424>
    3cc4:	40a30533          	sub	a0,t1,a0
    3cc8:	00a33333          	sltu	t1,t1,a0
    3ccc:	40f585b3          	sub	a1,a1,a5
    3cd0:	406585b3          	sub	a1,a1,t1
    3cd4:	00e59733          	sll	a4,a1,a4
    3cd8:	01055533          	srl	a0,a0,a6
    3cdc:	00a76533          	or	a0,a4,a0
    3ce0:	0105d5b3          	srl	a1,a1,a6
    3ce4:	00008067          	ret
    3ce8:	fca37ee3          	bgeu	t1,a0,3cc4 <__umoddi3+0x400>
    3cec:	40c50633          	sub	a2,a0,a2
    3cf0:	00c53533          	sltu	a0,a0,a2
    3cf4:	011508b3          	add	a7,a0,a7
    3cf8:	411787b3          	sub	a5,a5,a7
    3cfc:	00060513          	mv	a0,a2
    3d00:	fc5ff06f          	j	3cc4 <__umoddi3+0x400>
    3d04:	010007b7          	lui	a5,0x1000
    3d08:	02f67463          	bgeu	a2,a5,3d30 <__umoddi3+0x46c>
    3d0c:	01065693          	srli	a3,a2,0x10
    3d10:	01000713          	li	a4,16
    3d14:	d1dff06f          	j	3a30 <__umoddi3+0x16c>
    3d18:	00068513          	mv	a0,a3
    3d1c:	f39ff06f          	j	3c54 <__umoddi3+0x390>
    3d20:	000e0793          	mv	a5,t3
    3d24:	ef5ff06f          	j	3c18 <__umoddi3+0x354>
    3d28:	010787b3          	add	a5,a5,a6
    3d2c:	c39ff06f          	j	3964 <__umoddi3+0xa0>
    3d30:	01865693          	srli	a3,a2,0x18
    3d34:	01800713          	li	a4,24
    3d38:	cf9ff06f          	j	3a30 <__umoddi3+0x16c>

00003d3c <strlen>:
strlen():
    3d3c:	87aa                	mv	a5,a0
    3d3e:	0007c703          	lbu	a4,0(a5) # 1000000 <_app_prog_size+0xfc0000>
    3d42:	0785                	addi	a5,a5,1
    3d44:	ff6d                	bnez	a4,3d3e <strlen+0x2>
    3d46:	40a78533          	sub	a0,a5,a0
    3d4a:	157d                	addi	a0,a0,-1
    3d4c:	8082                	ret
